
xbee_test.elf:     file format elf32-avr

Sections:
Idx Name          Size      VMA       LMA       File off  Algn
  0 .data         00000008  00800100  00001308  0000139c  2**0
                  CONTENTS, ALLOC, LOAD, DATA
  1 .text         00001308  00000000  00000000  00000094  2**1
                  CONTENTS, ALLOC, LOAD, READONLY, CODE
  2 .bss          000000c5  00800108  00800108  000013a4  2**0
                  ALLOC
  3 .comment      00000060  00000000  00000000  000013a4  2**0
                  CONTENTS, READONLY
  4 .note.gnu.avr.deviceinfo 00000040  00000000  00000000  00001404  2**2
                  CONTENTS, READONLY
  5 .debug_aranges 000007a8  00000000  00000000  00001444  2**0
                  CONTENTS, READONLY, DEBUGGING
  6 .debug_info   0000a921  00000000  00000000  00001bec  2**0
                  CONTENTS, READONLY, DEBUGGING
  7 .debug_abbrev 00001591  00000000  00000000  0000c50d  2**0
                  CONTENTS, READONLY, DEBUGGING
  8 .debug_line   00003917  00000000  00000000  0000da9e  2**0
                  CONTENTS, READONLY, DEBUGGING
  9 .debug_frame  0000140c  00000000  00000000  000113b8  2**2
                  CONTENTS, READONLY, DEBUGGING
 10 .debug_str    00003dc2  00000000  00000000  000127c4  2**0
                  CONTENTS, READONLY, DEBUGGING
 11 .debug_loc    00006ef7  00000000  00000000  00016586  2**0
                  CONTENTS, READONLY, DEBUGGING
 12 .debug_ranges 00000788  00000000  00000000  0001d47d  2**0
                  CONTENTS, READONLY, DEBUGGING

Disassembly of section .text:

00000000 <__vectors>:
       0:	56 c0       	rjmp	.+172    	; 0xae <__ctors_end>
       2:	00 00       	nop
       4:	7d c0       	rjmp	.+250    	; 0x100 <__bad_interrupt>
       6:	00 00       	nop
       8:	7b c0       	rjmp	.+246    	; 0x100 <__bad_interrupt>
       a:	00 00       	nop
       c:	79 c0       	rjmp	.+242    	; 0x100 <__bad_interrupt>
       e:	00 00       	nop
      10:	77 c0       	rjmp	.+238    	; 0x100 <__bad_interrupt>
      12:	00 00       	nop
      14:	75 c0       	rjmp	.+234    	; 0x100 <__bad_interrupt>
      16:	00 00       	nop
      18:	73 c0       	rjmp	.+230    	; 0x100 <__bad_interrupt>
      1a:	00 00       	nop
      1c:	71 c0       	rjmp	.+226    	; 0x100 <__bad_interrupt>
      1e:	00 00       	nop
      20:	6f c0       	rjmp	.+222    	; 0x100 <__bad_interrupt>
      22:	00 00       	nop
      24:	6d c0       	rjmp	.+218    	; 0x100 <__bad_interrupt>
      26:	00 00       	nop
      28:	6b c0       	rjmp	.+214    	; 0x100 <__bad_interrupt>
      2a:	00 00       	nop
      2c:	69 c0       	rjmp	.+210    	; 0x100 <__bad_interrupt>
      2e:	00 00       	nop
      30:	ac c0       	rjmp	.+344    	; 0x18a <__vector_12>
      32:	00 00       	nop
      34:	65 c0       	rjmp	.+202    	; 0x100 <__bad_interrupt>
      36:	00 00       	nop
      38:	63 c0       	rjmp	.+198    	; 0x100 <__bad_interrupt>
      3a:	00 00       	nop
      3c:	61 c0       	rjmp	.+194    	; 0x100 <__bad_interrupt>
      3e:	00 00       	nop
      40:	5f c0       	rjmp	.+190    	; 0x100 <__bad_interrupt>
      42:	00 00       	nop
      44:	5d c0       	rjmp	.+186    	; 0x100 <__bad_interrupt>
      46:	00 00       	nop
      48:	35 c7       	rjmp	.+3690   	; 0xeb4 <__vector_18>
      4a:	00 00       	nop
      4c:	0c 94 51 08 	jmp	0x10a2	; 0x10a2 <__vector_19>
      50:	57 c0       	rjmp	.+174    	; 0x100 <__bad_interrupt>
      52:	00 00       	nop
      54:	55 c0       	rjmp	.+170    	; 0x100 <__bad_interrupt>
      56:	00 00       	nop
      58:	53 c0       	rjmp	.+166    	; 0x100 <__bad_interrupt>
      5a:	00 00       	nop
      5c:	51 c0       	rjmp	.+162    	; 0x100 <__bad_interrupt>
      5e:	00 00       	nop
      60:	4f c0       	rjmp	.+158    	; 0x100 <__bad_interrupt>
      62:	00 00       	nop
      64:	4d c0       	rjmp	.+154    	; 0x100 <__bad_interrupt>
      66:	00 00       	nop
      68:	4b c0       	rjmp	.+150    	; 0x100 <__bad_interrupt>
      6a:	00 00       	nop
      6c:	49 c0       	rjmp	.+146    	; 0x100 <__bad_interrupt>
      6e:	00 00       	nop
      70:	47 c0       	rjmp	.+142    	; 0x100 <__bad_interrupt>
      72:	00 00       	nop
      74:	45 c0       	rjmp	.+138    	; 0x100 <__bad_interrupt>
      76:	00 00       	nop
      78:	43 c0       	rjmp	.+134    	; 0x100 <__bad_interrupt>
      7a:	00 00       	nop
      7c:	41 c0       	rjmp	.+130    	; 0x100 <__bad_interrupt>
      7e:	00 00       	nop
      80:	3f c0       	rjmp	.+126    	; 0x100 <__bad_interrupt>
      82:	00 00       	nop
      84:	3d c0       	rjmp	.+122    	; 0x100 <__bad_interrupt>
      86:	00 00       	nop
      88:	3b c0       	rjmp	.+118    	; 0x100 <__bad_interrupt>
      8a:	00 00       	nop
      8c:	39 c0       	rjmp	.+114    	; 0x100 <__bad_interrupt>
      8e:	00 00       	nop
      90:	37 c0       	rjmp	.+110    	; 0x100 <__bad_interrupt>
      92:	00 00       	nop
      94:	67 01       	movw	r12, r14
      96:	f9 01       	movw	r30, r18
      98:	73 02       	muls	r23, r19
      9a:	d7 02       	muls	r29, r23
      9c:	14 03       	mulsu	r17, r20
      9e:	5b 03       	fmul	r21, r19
      a0:	a6 03       	fmuls	r18, r22
      a2:	31 04       	cpc	r3, r1
      a4:	c6 04       	cpc	r12, r6
      a6:	5e 01       	movw	r10, r28
      a8:	b9 05       	cpc	r27, r9

000000aa <__ctors_start>:
      aa:	5b 08       	sbc	r5, r11
      ac:	6a 09       	sbc	r22, r10

000000ae <__ctors_end>:
      ae:	11 24       	eor	r1, r1
      b0:	1f be       	out	0x3f, r1	; 63
      b2:	cf ef       	ldi	r28, 0xFF	; 255
      b4:	d0 e1       	ldi	r29, 0x10	; 16
      b6:	de bf       	out	0x3e, r29	; 62
      b8:	cd bf       	out	0x3d, r28	; 61

000000ba <__do_copy_data>:
      ba:	11 e0       	ldi	r17, 0x01	; 1
      bc:	a0 e0       	ldi	r26, 0x00	; 0
      be:	b1 e0       	ldi	r27, 0x01	; 1
      c0:	e8 e0       	ldi	r30, 0x08	; 8
      c2:	f3 e1       	ldi	r31, 0x13	; 19
      c4:	00 e0       	ldi	r16, 0x00	; 0
      c6:	0b bf       	out	0x3b, r16	; 59
      c8:	02 c0       	rjmp	.+4      	; 0xce <__do_copy_data+0x14>
      ca:	07 90       	elpm	r0, Z+
      cc:	0d 92       	st	X+, r0
      ce:	a8 30       	cpi	r26, 0x08	; 8
      d0:	b1 07       	cpc	r27, r17
      d2:	d9 f7       	brne	.-10     	; 0xca <__do_copy_data+0x10>

000000d4 <__do_clear_bss>:
      d4:	21 e0       	ldi	r18, 0x01	; 1
      d6:	a8 e0       	ldi	r26, 0x08	; 8
      d8:	b1 e0       	ldi	r27, 0x01	; 1
      da:	01 c0       	rjmp	.+2      	; 0xde <.do_clear_bss_start>

000000dc <.do_clear_bss_loop>:
      dc:	1d 92       	st	X+, r1

000000de <.do_clear_bss_start>:
      de:	ad 3c       	cpi	r26, 0xCD	; 205
      e0:	b2 07       	cpc	r27, r18
      e2:	e1 f7       	brne	.-8      	; 0xdc <.do_clear_bss_loop>

000000e4 <__do_global_ctors>:
      e4:	10 e0       	ldi	r17, 0x00	; 0
      e6:	c7 e5       	ldi	r28, 0x57	; 87
      e8:	d0 e0       	ldi	r29, 0x00	; 0
      ea:	04 c0       	rjmp	.+8      	; 0xf4 <__do_global_ctors+0x10>
      ec:	21 97       	sbiw	r28, 0x01	; 1
      ee:	fe 01       	movw	r30, r28
      f0:	0e 94 79 09 	call	0x12f2	; 0x12f2 <__tablejump2__>
      f4:	c5 35       	cpi	r28, 0x55	; 85
      f6:	d1 07       	cpc	r29, r17
      f8:	c9 f7       	brne	.-14     	; 0xec <__do_global_ctors+0x8>
      fa:	33 d6       	rcall	.+3174   	; 0xd62 <main>
      fc:	0c 94 82 09 	jmp	0x1304	; 0x1304 <_exit>

00000100 <__bad_interrupt>:
     100:	7f cf       	rjmp	.-258    	; 0x0 <__vectors>

00000102 <uart_init>:
            }
        } // while (evaluate ...
    } // while (bt_not_found ...

    return (bt_performed);
}
     102:	cf 93       	push	r28
     104:	df 93       	push	r29
     106:	e1 ec       	ldi	r30, 0xC1	; 193
     108:	f0 e0       	ldi	r31, 0x00	; 0
     10a:	10 82       	st	Z, r1
     10c:	90 91 c6 00 	lds	r25, 0x00C6	; 0x8000c6 <__TEXT_REGION_LENGTH__+0x7e00c6>
     110:	62 ec       	ldi	r22, 0xC2	; 194
     112:	70 e0       	ldi	r23, 0x00	; 0
     114:	db 01       	movw	r26, r22
     116:	9c 93       	st	X, r25
     118:	c0 ec       	ldi	r28, 0xC0	; 192
     11a:	d0 e0       	ldi	r29, 0x00	; 0
     11c:	90 e4       	ldi	r25, 0x40	; 64
     11e:	98 83       	st	Y, r25
     120:	96 e0       	ldi	r25, 0x06	; 6
     122:	9c 93       	st	X, r25
     124:	45 ec       	ldi	r20, 0xC5	; 197
     126:	50 e0       	ldi	r21, 0x00	; 0
     128:	da 01       	movw	r26, r20
     12a:	1c 92       	st	X, r1
     12c:	24 ec       	ldi	r18, 0xC4	; 196
     12e:	30 e0       	ldi	r19, 0x00	; 0
     130:	d9 01       	movw	r26, r18
     132:	1c 92       	st	X, r1
     134:	da 01       	movw	r26, r20
     136:	1c 92       	st	X, r1
     138:	90 e1       	ldi	r25, 0x10	; 16
     13a:	d9 01       	movw	r26, r18
     13c:	9c 93       	st	X, r25
     13e:	98 81       	ld	r25, Y
     140:	92 60       	ori	r25, 0x02	; 2
     142:	98 83       	st	Y, r25
     144:	98 81       	ld	r25, Y
     146:	90 62       	ori	r25, 0x20	; 32
     148:	98 83       	st	Y, r25
     14a:	90 81       	ld	r25, Z
     14c:	9b 7f       	andi	r25, 0xFB	; 251
     14e:	90 83       	st	Z, r25
     150:	90 81       	ld	r25, Z
     152:	28 2f       	mov	r18, r24
     154:	24 70       	andi	r18, 0x04	; 4
     156:	92 2b       	or	r25, r18
     158:	90 83       	st	Z, r25
     15a:	98 2f       	mov	r25, r24
     15c:	98 73       	andi	r25, 0x38	; 56
     15e:	db 01       	movw	r26, r22
     160:	9c 93       	st	X, r25
     162:	9c 91       	ld	r25, X
     164:	83 70       	andi	r24, 0x03	; 3
     166:	88 0f       	add	r24, r24
     168:	89 2b       	or	r24, r25
     16a:	8c 93       	st	X, r24
     16c:	80 81       	ld	r24, Z
     16e:	88 61       	ori	r24, 0x18	; 24
     170:	80 83       	st	Z, r24
     172:	81 e0       	ldi	r24, 0x01	; 1
     174:	df 91       	pop	r29
     176:	cf 91       	pop	r28
     178:	08 95       	ret

0000017a <uart_putchar>:
     17a:	e0 ec       	ldi	r30, 0xC0	; 192
     17c:	f0 e0       	ldi	r31, 0x00	; 0
     17e:	90 81       	ld	r25, Z
     180:	95 ff       	sbrs	r25, 5
     182:	fd cf       	rjmp	.-6      	; 0x17e <uart_putchar+0x4>
     184:	80 93 c6 00 	sts	0x00C6, r24	; 0x8000c6 <__TEXT_REGION_LENGTH__+0x7e00c6>
     188:	08 95       	ret

0000018a <__vector_12>:
     18a:	1f 92       	push	r1
     18c:	0f 92       	push	r0
     18e:	0f b6       	in	r0, 0x3f	; 63
     190:	0f 92       	push	r0
     192:	11 24       	eor	r1, r1
     194:	8f 93       	push	r24
     196:	9f 93       	push	r25
     198:	af 93       	push	r26
     19a:	bf 93       	push	r27
     19c:	80 91 c1 01 	lds	r24, 0x01C1	; 0x8001c1 <_ZL12milliseconds>
     1a0:	90 91 c2 01 	lds	r25, 0x01C2	; 0x8001c2 <_ZL12milliseconds+0x1>
     1a4:	a0 91 c3 01 	lds	r26, 0x01C3	; 0x8001c3 <_ZL12milliseconds+0x2>
     1a8:	b0 91 c4 01 	lds	r27, 0x01C4	; 0x8001c4 <_ZL12milliseconds+0x3>
     1ac:	01 96       	adiw	r24, 0x01	; 1
     1ae:	a1 1d       	adc	r26, r1
     1b0:	b1 1d       	adc	r27, r1
     1b2:	80 93 c1 01 	sts	0x01C1, r24	; 0x8001c1 <_ZL12milliseconds>
     1b6:	90 93 c2 01 	sts	0x01C2, r25	; 0x8001c2 <_ZL12milliseconds+0x1>
     1ba:	a0 93 c3 01 	sts	0x01C3, r26	; 0x8001c3 <_ZL12milliseconds+0x2>
     1be:	b0 93 c4 01 	sts	0x01C4, r27	; 0x8001c4 <_ZL12milliseconds+0x3>
     1c2:	bf 91       	pop	r27
     1c4:	af 91       	pop	r26
     1c6:	9f 91       	pop	r25
     1c8:	8f 91       	pop	r24
     1ca:	0f 90       	pop	r0
     1cc:	0f be       	out	0x3f, r0	; 63
     1ce:	0f 90       	pop	r0
     1d0:	1f 90       	pop	r1
     1d2:	18 95       	reti

000001d4 <can_clear_all_mob>:
     1d4:	80 e0       	ldi	r24, 0x00	; 0
     1d6:	ad ee       	ldi	r26, 0xED	; 237
     1d8:	b0 e0       	ldi	r27, 0x00	; 0
     1da:	98 2f       	mov	r25, r24
     1dc:	92 95       	swap	r25
     1de:	90 7f       	andi	r25, 0xF0	; 240
     1e0:	9c 93       	st	X, r25
     1e2:	ee ee       	ldi	r30, 0xEE	; 238
     1e4:	f0 e0       	ldi	r31, 0x00	; 0
     1e6:	11 92       	st	Z+, r1
     1e8:	e8 3f       	cpi	r30, 0xF8	; 248
     1ea:	f1 05       	cpc	r31, r1
     1ec:	e1 f7       	brne	.-8      	; 0x1e6 <can_clear_all_mob+0x12>
     1ee:	8f 5f       	subi	r24, 0xFF	; 255
     1f0:	8f 30       	cpi	r24, 0x0F	; 15
     1f2:	99 f7       	brne	.-26     	; 0x1da <can_clear_all_mob+0x6>
     1f4:	08 95       	ret

000001f6 <can_get_mob_free>:
     1f6:	ed ee       	ldi	r30, 0xED	; 237
     1f8:	f0 e0       	ldi	r31, 0x00	; 0
     1fa:	20 81       	ld	r18, Z
     1fc:	10 82       	st	Z, r1
     1fe:	80 91 ef 00 	lds	r24, 0x00EF	; 0x8000ef <__TEXT_REGION_LENGTH__+0x7e00ef>
     202:	80 7c       	andi	r24, 0xC0	; 192
     204:	69 f0       	breq	.+26     	; 0x220 <can_get_mob_free+0x2a>
     206:	81 e0       	ldi	r24, 0x01	; 1
     208:	ad ee       	ldi	r26, 0xED	; 237
     20a:	b0 e0       	ldi	r27, 0x00	; 0
     20c:	ef ee       	ldi	r30, 0xEF	; 239
     20e:	f0 e0       	ldi	r31, 0x00	; 0
     210:	98 2f       	mov	r25, r24
     212:	92 95       	swap	r25
     214:	90 7f       	andi	r25, 0xF0	; 240
     216:	9c 93       	st	X, r25
     218:	90 81       	ld	r25, Z
     21a:	90 7c       	andi	r25, 0xC0	; 192
     21c:	29 f4       	brne	.+10     	; 0x228 <can_get_mob_free+0x32>
     21e:	01 c0       	rjmp	.+2      	; 0x222 <can_get_mob_free+0x2c>
     220:	80 e0       	ldi	r24, 0x00	; 0
     222:	20 93 ed 00 	sts	0x00ED, r18	; 0x8000ed <__TEXT_REGION_LENGTH__+0x7e00ed>
     226:	08 95       	ret
     228:	8f 5f       	subi	r24, 0xFF	; 255
     22a:	8f 30       	cpi	r24, 0x0F	; 15
     22c:	89 f7       	brne	.-30     	; 0x210 <can_get_mob_free+0x1a>
     22e:	20 93 ed 00 	sts	0x00ED, r18	; 0x8000ed <__TEXT_REGION_LENGTH__+0x7e00ed>
     232:	8f ef       	ldi	r24, 0xFF	; 255
     234:	08 95       	ret

00000236 <can_cmd>:
     236:	0f 93       	push	r16
     238:	1f 93       	push	r17
     23a:	cf 93       	push	r28
     23c:	df 93       	push	r29
     23e:	00 d0       	rcall	.+0      	; 0x240 <can_cmd+0xa>
     240:	00 d0       	rcall	.+0      	; 0x242 <can_cmd+0xc>
     242:	cd b7       	in	r28, 0x3d	; 61
     244:	de b7       	in	r29, 0x3e	; 62
     246:	fc 01       	movw	r30, r24
     248:	81 81       	ldd	r24, Z+1	; 0x01
     24a:	8c 30       	cpi	r24, 0x0C	; 12
     24c:	99 f4       	brne	.+38     	; 0x274 <can_cmd+0x3e>
     24e:	81 85       	ldd	r24, Z+9	; 0x09
     250:	80 36       	cpi	r24, 0x60	; 96
     252:	69 f4       	brne	.+26     	; 0x26e <can_cmd+0x38>
     254:	80 81       	ld	r24, Z
     256:	82 95       	swap	r24
     258:	80 7f       	andi	r24, 0xF0	; 240
     25a:	80 93 ed 00 	sts	0x00ED, r24	; 0x8000ed <__TEXT_REGION_LENGTH__+0x7e00ed>
     25e:	af ee       	ldi	r26, 0xEF	; 239
     260:	b0 e0       	ldi	r27, 0x00	; 0
     262:	8c 91       	ld	r24, X
     264:	8f 73       	andi	r24, 0x3F	; 63
     266:	8c 93       	st	X, r24
     268:	10 92 ee 00 	sts	0x00EE, r1	; 0x8000ee <__TEXT_REGION_LENGTH__+0x7e00ee>
     26c:	10 82       	st	Z, r1
     26e:	11 86       	std	Z+9, r1	; 0x09
     270:	80 e0       	ldi	r24, 0x00	; 0
     272:	38 c5       	rjmp	.+2672   	; 0xce4 <__LOCK_REGION_LENGTH__+0x8e4>
     274:	8f 01       	movw	r16, r30
     276:	bf df       	rcall	.-130    	; 0x1f6 <can_get_mob_free>
     278:	8f 3f       	cpi	r24, 0xFF	; 255
     27a:	09 f4       	brne	.+2      	; 0x27e <can_cmd+0x48>
     27c:	2e c5       	rjmp	.+2652   	; 0xcda <__LOCK_REGION_LENGTH__+0x8da>
     27e:	90 e6       	ldi	r25, 0x60	; 96
     280:	d8 01       	movw	r26, r16
     282:	19 96       	adiw	r26, 0x09	; 9
     284:	9c 93       	st	X, r25
     286:	19 97       	sbiw	r26, 0x09	; 9
     288:	8c 93       	st	X, r24
     28a:	82 95       	swap	r24
     28c:	80 7f       	andi	r24, 0xF0	; 240
     28e:	80 93 ed 00 	sts	0x00ED, r24	; 0x8000ed <__TEXT_REGION_LENGTH__+0x7e00ed>
     292:	ee ee       	ldi	r30, 0xEE	; 238
     294:	f0 e0       	ldi	r31, 0x00	; 0
     296:	11 92       	st	Z+, r1
     298:	e8 3f       	cpi	r30, 0xF8	; 248
     29a:	f1 05       	cpc	r31, r1
     29c:	e1 f7       	brne	.-8      	; 0x296 <can_cmd+0x60>
     29e:	d8 01       	movw	r26, r16
     2a0:	11 96       	adiw	r26, 0x01	; 1
     2a2:	ec 91       	ld	r30, X
     2a4:	8e 2f       	mov	r24, r30
     2a6:	90 e0       	ldi	r25, 0x00	; 0
     2a8:	fc 01       	movw	r30, r24
     2aa:	31 97       	sbiw	r30, 0x01	; 1
     2ac:	eb 30       	cpi	r30, 0x0B	; 11
     2ae:	f1 05       	cpc	r31, r1
     2b0:	08 f0       	brcs	.+2      	; 0x2b4 <can_cmd+0x7e>
     2b2:	0f c5       	rjmp	.+2590   	; 0xcd2 <__LOCK_REGION_LENGTH__+0x8d2>
     2b4:	e6 5b       	subi	r30, 0xB6	; 182
     2b6:	ff 4f       	sbci	r31, 0xFF	; 255
     2b8:	0c 94 79 09 	jmp	0x12f2	; 0x12f2 <__tablejump2__>
     2bc:	f8 01       	movw	r30, r16
     2be:	86 81       	ldd	r24, Z+6	; 0x06
     2c0:	88 23       	and	r24, r24
     2c2:	09 f4       	brne	.+2      	; 0x2c6 <can_cmd+0x90>
     2c4:	0b c4       	rjmp	.+2070   	; 0xadc <__LOCK_REGION_LENGTH__+0x6dc>
     2c6:	80 e0       	ldi	r24, 0x00	; 0
     2c8:	2a ef       	ldi	r18, 0xFA	; 250
     2ca:	30 e0       	ldi	r19, 0x00	; 0
     2cc:	f8 c3       	rjmp	.+2032   	; 0xabe <__LOCK_REGION_LENGTH__+0x6be>
     2ce:	d8 01       	movw	r26, r16
     2d0:	1b 96       	adiw	r26, 0x0b	; 11
     2d2:	8c 91       	ld	r24, X
     2d4:	1b 97       	sbiw	r26, 0x0b	; 11
     2d6:	88 23       	and	r24, r24
     2d8:	e9 f1       	breq	.+122    	; 0x354 <can_cmd+0x11e>
     2da:	15 96       	adiw	r26, 0x05	; 5
     2dc:	8c 91       	ld	r24, X
     2de:	15 97       	sbiw	r26, 0x05	; 5
     2e0:	98 2f       	mov	r25, r24
     2e2:	99 0f       	add	r25, r25
     2e4:	99 0f       	add	r25, r25
     2e6:	99 0f       	add	r25, r25
     2e8:	14 96       	adiw	r26, 0x04	; 4
     2ea:	8c 91       	ld	r24, X
     2ec:	14 97       	sbiw	r26, 0x04	; 4
     2ee:	82 95       	swap	r24
     2f0:	86 95       	lsr	r24
     2f2:	87 70       	andi	r24, 0x07	; 7
     2f4:	89 0f       	add	r24, r25
     2f6:	80 93 f3 00 	sts	0x00F3, r24	; 0x8000f3 <__TEXT_REGION_LENGTH__+0x7e00f3>
     2fa:	14 96       	adiw	r26, 0x04	; 4
     2fc:	8c 91       	ld	r24, X
     2fe:	14 97       	sbiw	r26, 0x04	; 4
     300:	98 2f       	mov	r25, r24
     302:	99 0f       	add	r25, r25
     304:	99 0f       	add	r25, r25
     306:	99 0f       	add	r25, r25
     308:	13 96       	adiw	r26, 0x03	; 3
     30a:	8c 91       	ld	r24, X
     30c:	13 97       	sbiw	r26, 0x03	; 3
     30e:	82 95       	swap	r24
     310:	86 95       	lsr	r24
     312:	87 70       	andi	r24, 0x07	; 7
     314:	89 0f       	add	r24, r25
     316:	80 93 f2 00 	sts	0x00F2, r24	; 0x8000f2 <__TEXT_REGION_LENGTH__+0x7e00f2>
     31a:	13 96       	adiw	r26, 0x03	; 3
     31c:	8c 91       	ld	r24, X
     31e:	13 97       	sbiw	r26, 0x03	; 3
     320:	98 2f       	mov	r25, r24
     322:	99 0f       	add	r25, r25
     324:	99 0f       	add	r25, r25
     326:	99 0f       	add	r25, r25
     328:	12 96       	adiw	r26, 0x02	; 2
     32a:	8c 91       	ld	r24, X
     32c:	12 97       	sbiw	r26, 0x02	; 2
     32e:	82 95       	swap	r24
     330:	86 95       	lsr	r24
     332:	87 70       	andi	r24, 0x07	; 7
     334:	89 0f       	add	r24, r25
     336:	80 93 f1 00 	sts	0x00F1, r24	; 0x8000f1 <__TEXT_REGION_LENGTH__+0x7e00f1>
     33a:	12 96       	adiw	r26, 0x02	; 2
     33c:	8c 91       	ld	r24, X
     33e:	88 0f       	add	r24, r24
     340:	88 0f       	add	r24, r24
     342:	88 0f       	add	r24, r24
     344:	80 93 f0 00 	sts	0x00F0, r24	; 0x8000f0 <__TEXT_REGION_LENGTH__+0x7e00f0>
     348:	ef ee       	ldi	r30, 0xEF	; 239
     34a:	f0 e0       	ldi	r31, 0x00	; 0
     34c:	80 81       	ld	r24, Z
     34e:	80 61       	ori	r24, 0x10	; 16
     350:	80 83       	st	Z, r24
     352:	19 c0       	rjmp	.+50     	; 0x386 <can_cmd+0x150>
     354:	f8 01       	movw	r30, r16
     356:	93 81       	ldd	r25, Z+3	; 0x03
     358:	82 81       	ldd	r24, Z+2	; 0x02
     35a:	86 95       	lsr	r24
     35c:	86 95       	lsr	r24
     35e:	86 95       	lsr	r24
     360:	f0 e2       	ldi	r31, 0x20	; 32
     362:	9f 9f       	mul	r25, r31
     364:	80 0d       	add	r24, r0
     366:	11 24       	eor	r1, r1
     368:	80 93 f3 00 	sts	0x00F3, r24	; 0x8000f3 <__TEXT_REGION_LENGTH__+0x7e00f3>
     36c:	d8 01       	movw	r26, r16
     36e:	12 96       	adiw	r26, 0x02	; 2
     370:	8c 91       	ld	r24, X
     372:	82 95       	swap	r24
     374:	88 0f       	add	r24, r24
     376:	80 7e       	andi	r24, 0xE0	; 224
     378:	80 93 f2 00 	sts	0x00F2, r24	; 0x8000f2 <__TEXT_REGION_LENGTH__+0x7e00f2>
     37c:	ef ee       	ldi	r30, 0xEF	; 239
     37e:	f0 e0       	ldi	r31, 0x00	; 0
     380:	80 81       	ld	r24, Z
     382:	8f 7e       	andi	r24, 0xEF	; 239
     384:	80 83       	st	Z, r24
     386:	f8 01       	movw	r30, r16
     388:	86 81       	ldd	r24, Z+6	; 0x06
     38a:	88 23       	and	r24, r24
     38c:	91 f0       	breq	.+36     	; 0x3b2 <can_cmd+0x17c>
     38e:	80 e0       	ldi	r24, 0x00	; 0
     390:	2a ef       	ldi	r18, 0xFA	; 250
     392:	30 e0       	ldi	r19, 0x00	; 0
     394:	d8 01       	movw	r26, r16
     396:	17 96       	adiw	r26, 0x07	; 7
     398:	ed 91       	ld	r30, X+
     39a:	fc 91       	ld	r31, X
     39c:	18 97       	sbiw	r26, 0x08	; 8
     39e:	e8 0f       	add	r30, r24
     3a0:	f1 1d       	adc	r31, r1
     3a2:	90 81       	ld	r25, Z
     3a4:	f9 01       	movw	r30, r18
     3a6:	90 83       	st	Z, r25
     3a8:	8f 5f       	subi	r24, 0xFF	; 255
     3aa:	16 96       	adiw	r26, 0x06	; 6
     3ac:	9c 91       	ld	r25, X
     3ae:	89 17       	cp	r24, r25
     3b0:	88 f3       	brcs	.-30     	; 0x394 <can_cmd+0x15e>
     3b2:	d8 01       	movw	r26, r16
     3b4:	1a 96       	adiw	r26, 0x0a	; 10
     3b6:	8c 91       	ld	r24, X
     3b8:	88 23       	and	r24, r24
     3ba:	31 f0       	breq	.+12     	; 0x3c8 <can_cmd+0x192>
     3bc:	e0 ef       	ldi	r30, 0xF0	; 240
     3be:	f0 e0       	ldi	r31, 0x00	; 0
     3c0:	80 81       	ld	r24, Z
     3c2:	84 60       	ori	r24, 0x04	; 4
     3c4:	80 83       	st	Z, r24
     3c6:	05 c0       	rjmp	.+10     	; 0x3d2 <can_cmd+0x19c>
     3c8:	e0 ef       	ldi	r30, 0xF0	; 240
     3ca:	f0 e0       	ldi	r31, 0x00	; 0
     3cc:	80 81       	ld	r24, Z
     3ce:	8b 7f       	andi	r24, 0xFB	; 251
     3d0:	80 83       	st	Z, r24
     3d2:	ef ee       	ldi	r30, 0xEF	; 239
     3d4:	f0 e0       	ldi	r31, 0x00	; 0
     3d6:	90 81       	ld	r25, Z
     3d8:	d8 01       	movw	r26, r16
     3da:	16 96       	adiw	r26, 0x06	; 6
     3dc:	8c 91       	ld	r24, X
     3de:	89 2b       	or	r24, r25
     3e0:	80 83       	st	Z, r24
     3e2:	80 81       	ld	r24, Z
     3e4:	8f 73       	andi	r24, 0x3F	; 63
     3e6:	80 83       	st	Z, r24
     3e8:	80 81       	ld	r24, Z
     3ea:	80 64       	ori	r24, 0x40	; 64
     3ec:	80 83       	st	Z, r24
     3ee:	80 e0       	ldi	r24, 0x00	; 0
     3f0:	79 c4       	rjmp	.+2290   	; 0xce4 <__LOCK_REGION_LENGTH__+0x8e4>
     3f2:	f8 01       	movw	r30, r16
     3f4:	83 85       	ldd	r24, Z+11	; 0x0b
     3f6:	88 23       	and	r24, r24
     3f8:	81 f1       	breq	.+96     	; 0x45a <__LOCK_REGION_LENGTH__+0x5a>
     3fa:	85 81       	ldd	r24, Z+5	; 0x05
     3fc:	98 2f       	mov	r25, r24
     3fe:	99 0f       	add	r25, r25
     400:	99 0f       	add	r25, r25
     402:	99 0f       	add	r25, r25
     404:	84 81       	ldd	r24, Z+4	; 0x04
     406:	82 95       	swap	r24
     408:	86 95       	lsr	r24
     40a:	87 70       	andi	r24, 0x07	; 7
     40c:	89 0f       	add	r24, r25
     40e:	80 93 f3 00 	sts	0x00F3, r24	; 0x8000f3 <__TEXT_REGION_LENGTH__+0x7e00f3>
     412:	84 81       	ldd	r24, Z+4	; 0x04
     414:	98 2f       	mov	r25, r24
     416:	99 0f       	add	r25, r25
     418:	99 0f       	add	r25, r25
     41a:	99 0f       	add	r25, r25
     41c:	83 81       	ldd	r24, Z+3	; 0x03
     41e:	82 95       	swap	r24
     420:	86 95       	lsr	r24
     422:	87 70       	andi	r24, 0x07	; 7
     424:	89 0f       	add	r24, r25
     426:	80 93 f2 00 	sts	0x00F2, r24	; 0x8000f2 <__TEXT_REGION_LENGTH__+0x7e00f2>
     42a:	83 81       	ldd	r24, Z+3	; 0x03
     42c:	98 2f       	mov	r25, r24
     42e:	99 0f       	add	r25, r25
     430:	99 0f       	add	r25, r25
     432:	99 0f       	add	r25, r25
     434:	82 81       	ldd	r24, Z+2	; 0x02
     436:	82 95       	swap	r24
     438:	86 95       	lsr	r24
     43a:	87 70       	andi	r24, 0x07	; 7
     43c:	89 0f       	add	r24, r25
     43e:	80 93 f1 00 	sts	0x00F1, r24	; 0x8000f1 <__TEXT_REGION_LENGTH__+0x7e00f1>
     442:	82 81       	ldd	r24, Z+2	; 0x02
     444:	88 0f       	add	r24, r24
     446:	88 0f       	add	r24, r24
     448:	88 0f       	add	r24, r24
     44a:	80 93 f0 00 	sts	0x00F0, r24	; 0x8000f0 <__TEXT_REGION_LENGTH__+0x7e00f0>
     44e:	ef ee       	ldi	r30, 0xEF	; 239
     450:	f0 e0       	ldi	r31, 0x00	; 0
     452:	80 81       	ld	r24, Z
     454:	80 61       	ori	r24, 0x10	; 16
     456:	80 83       	st	Z, r24
     458:	17 c0       	rjmp	.+46     	; 0x488 <__LOCK_REGION_LENGTH__+0x88>
     45a:	93 81       	ldd	r25, Z+3	; 0x03
     45c:	82 81       	ldd	r24, Z+2	; 0x02
     45e:	86 95       	lsr	r24
     460:	86 95       	lsr	r24
     462:	86 95       	lsr	r24
     464:	b0 e2       	ldi	r27, 0x20	; 32
     466:	9b 9f       	mul	r25, r27
     468:	80 0d       	add	r24, r0
     46a:	11 24       	eor	r1, r1
     46c:	80 93 f3 00 	sts	0x00F3, r24	; 0x8000f3 <__TEXT_REGION_LENGTH__+0x7e00f3>
     470:	f8 01       	movw	r30, r16
     472:	82 81       	ldd	r24, Z+2	; 0x02
     474:	82 95       	swap	r24
     476:	88 0f       	add	r24, r24
     478:	80 7e       	andi	r24, 0xE0	; 224
     47a:	80 93 f2 00 	sts	0x00F2, r24	; 0x8000f2 <__TEXT_REGION_LENGTH__+0x7e00f2>
     47e:	ef ee       	ldi	r30, 0xEF	; 239
     480:	f0 e0       	ldi	r31, 0x00	; 0
     482:	80 81       	ld	r24, Z
     484:	8f 7e       	andi	r24, 0xEF	; 239
     486:	80 83       	st	Z, r24
     488:	d8 01       	movw	r26, r16
     48a:	16 96       	adiw	r26, 0x06	; 6
     48c:	8c 91       	ld	r24, X
     48e:	88 23       	and	r24, r24
     490:	91 f0       	breq	.+36     	; 0x4b6 <__LOCK_REGION_LENGTH__+0xb6>
     492:	80 e0       	ldi	r24, 0x00	; 0
     494:	2a ef       	ldi	r18, 0xFA	; 250
     496:	30 e0       	ldi	r19, 0x00	; 0
     498:	d8 01       	movw	r26, r16
     49a:	17 96       	adiw	r26, 0x07	; 7
     49c:	ed 91       	ld	r30, X+
     49e:	fc 91       	ld	r31, X
     4a0:	18 97       	sbiw	r26, 0x08	; 8
     4a2:	e8 0f       	add	r30, r24
     4a4:	f1 1d       	adc	r31, r1
     4a6:	90 81       	ld	r25, Z
     4a8:	f9 01       	movw	r30, r18
     4aa:	90 83       	st	Z, r25
     4ac:	8f 5f       	subi	r24, 0xFF	; 255
     4ae:	16 96       	adiw	r26, 0x06	; 6
     4b0:	9c 91       	ld	r25, X
     4b2:	89 17       	cp	r24, r25
     4b4:	88 f3       	brcs	.-30     	; 0x498 <__LOCK_REGION_LENGTH__+0x98>
     4b6:	d8 01       	movw	r26, r16
     4b8:	1a 96       	adiw	r26, 0x0a	; 10
     4ba:	1c 92       	st	X, r1
     4bc:	1a 97       	sbiw	r26, 0x0a	; 10
     4be:	e0 ef       	ldi	r30, 0xF0	; 240
     4c0:	f0 e0       	ldi	r31, 0x00	; 0
     4c2:	80 81       	ld	r24, Z
     4c4:	8b 7f       	andi	r24, 0xFB	; 251
     4c6:	80 83       	st	Z, r24
     4c8:	ef ee       	ldi	r30, 0xEF	; 239
     4ca:	f0 e0       	ldi	r31, 0x00	; 0
     4cc:	90 81       	ld	r25, Z
     4ce:	16 96       	adiw	r26, 0x06	; 6
     4d0:	8c 91       	ld	r24, X
     4d2:	89 2b       	or	r24, r25
     4d4:	80 83       	st	Z, r24
     4d6:	80 81       	ld	r24, Z
     4d8:	8f 73       	andi	r24, 0x3F	; 63
     4da:	80 83       	st	Z, r24
     4dc:	80 81       	ld	r24, Z
     4de:	80 64       	ori	r24, 0x40	; 64
     4e0:	80 83       	st	Z, r24
     4e2:	80 e0       	ldi	r24, 0x00	; 0
     4e4:	ff c3       	rjmp	.+2046   	; 0xce4 <__LOCK_REGION_LENGTH__+0x8e4>
     4e6:	f8 01       	movw	r30, r16
     4e8:	83 85       	ldd	r24, Z+11	; 0x0b
     4ea:	88 23       	and	r24, r24
     4ec:	81 f1       	breq	.+96     	; 0x54e <__LOCK_REGION_LENGTH__+0x14e>
     4ee:	85 81       	ldd	r24, Z+5	; 0x05
     4f0:	98 2f       	mov	r25, r24
     4f2:	99 0f       	add	r25, r25
     4f4:	99 0f       	add	r25, r25
     4f6:	99 0f       	add	r25, r25
     4f8:	84 81       	ldd	r24, Z+4	; 0x04
     4fa:	82 95       	swap	r24
     4fc:	86 95       	lsr	r24
     4fe:	87 70       	andi	r24, 0x07	; 7
     500:	89 0f       	add	r24, r25
     502:	80 93 f3 00 	sts	0x00F3, r24	; 0x8000f3 <__TEXT_REGION_LENGTH__+0x7e00f3>
     506:	84 81       	ldd	r24, Z+4	; 0x04
     508:	98 2f       	mov	r25, r24
     50a:	99 0f       	add	r25, r25
     50c:	99 0f       	add	r25, r25
     50e:	99 0f       	add	r25, r25
     510:	83 81       	ldd	r24, Z+3	; 0x03
     512:	82 95       	swap	r24
     514:	86 95       	lsr	r24
     516:	87 70       	andi	r24, 0x07	; 7
     518:	89 0f       	add	r24, r25
     51a:	80 93 f2 00 	sts	0x00F2, r24	; 0x8000f2 <__TEXT_REGION_LENGTH__+0x7e00f2>
     51e:	83 81       	ldd	r24, Z+3	; 0x03
     520:	98 2f       	mov	r25, r24
     522:	99 0f       	add	r25, r25
     524:	99 0f       	add	r25, r25
     526:	99 0f       	add	r25, r25
     528:	82 81       	ldd	r24, Z+2	; 0x02
     52a:	82 95       	swap	r24
     52c:	86 95       	lsr	r24
     52e:	87 70       	andi	r24, 0x07	; 7
     530:	89 0f       	add	r24, r25
     532:	80 93 f1 00 	sts	0x00F1, r24	; 0x8000f1 <__TEXT_REGION_LENGTH__+0x7e00f1>
     536:	82 81       	ldd	r24, Z+2	; 0x02
     538:	88 0f       	add	r24, r24
     53a:	88 0f       	add	r24, r24
     53c:	88 0f       	add	r24, r24
     53e:	80 93 f0 00 	sts	0x00F0, r24	; 0x8000f0 <__TEXT_REGION_LENGTH__+0x7e00f0>
     542:	ef ee       	ldi	r30, 0xEF	; 239
     544:	f0 e0       	ldi	r31, 0x00	; 0
     546:	80 81       	ld	r24, Z
     548:	80 61       	ori	r24, 0x10	; 16
     54a:	80 83       	st	Z, r24
     54c:	17 c0       	rjmp	.+46     	; 0x57c <__LOCK_REGION_LENGTH__+0x17c>
     54e:	93 81       	ldd	r25, Z+3	; 0x03
     550:	82 81       	ldd	r24, Z+2	; 0x02
     552:	86 95       	lsr	r24
     554:	86 95       	lsr	r24
     556:	86 95       	lsr	r24
     558:	b0 e2       	ldi	r27, 0x20	; 32
     55a:	9b 9f       	mul	r25, r27
     55c:	80 0d       	add	r24, r0
     55e:	11 24       	eor	r1, r1
     560:	80 93 f3 00 	sts	0x00F3, r24	; 0x8000f3 <__TEXT_REGION_LENGTH__+0x7e00f3>
     564:	f8 01       	movw	r30, r16
     566:	82 81       	ldd	r24, Z+2	; 0x02
     568:	82 95       	swap	r24
     56a:	88 0f       	add	r24, r24
     56c:	80 7e       	andi	r24, 0xE0	; 224
     56e:	80 93 f2 00 	sts	0x00F2, r24	; 0x8000f2 <__TEXT_REGION_LENGTH__+0x7e00f2>
     572:	ef ee       	ldi	r30, 0xEF	; 239
     574:	f0 e0       	ldi	r31, 0x00	; 0
     576:	80 81       	ld	r24, Z
     578:	8f 7e       	andi	r24, 0xEF	; 239
     57a:	80 83       	st	Z, r24
     57c:	81 e0       	ldi	r24, 0x01	; 1
     57e:	d8 01       	movw	r26, r16
     580:	1a 96       	adiw	r26, 0x0a	; 10
     582:	8c 93       	st	X, r24
     584:	1a 97       	sbiw	r26, 0x0a	; 10
     586:	e0 ef       	ldi	r30, 0xF0	; 240
     588:	f0 e0       	ldi	r31, 0x00	; 0
     58a:	80 81       	ld	r24, Z
     58c:	84 60       	ori	r24, 0x04	; 4
     58e:	80 83       	st	Z, r24
     590:	ef ee       	ldi	r30, 0xEF	; 239
     592:	f0 e0       	ldi	r31, 0x00	; 0
     594:	90 81       	ld	r25, Z
     596:	16 96       	adiw	r26, 0x06	; 6
     598:	8c 91       	ld	r24, X
     59a:	89 2b       	or	r24, r25
     59c:	80 83       	st	Z, r24
     59e:	80 81       	ld	r24, Z
     5a0:	8f 73       	andi	r24, 0x3F	; 63
     5a2:	80 83       	st	Z, r24
     5a4:	80 81       	ld	r24, Z
     5a6:	80 64       	ori	r24, 0x40	; 64
     5a8:	80 83       	st	Z, r24
     5aa:	80 e0       	ldi	r24, 0x00	; 0
     5ac:	9b c3       	rjmp	.+1846   	; 0xce4 <__LOCK_REGION_LENGTH__+0x8e4>
     5ae:	19 82       	std	Y+1, r1	; 0x01
     5b0:	1a 82       	std	Y+2, r1	; 0x02
     5b2:	1b 82       	std	Y+3, r1	; 0x03
     5b4:	1c 82       	std	Y+4, r1	; 0x04
     5b6:	10 92 f7 00 	sts	0x00F7, r1	; 0x8000f7 <__TEXT_REGION_LENGTH__+0x7e00f7>
     5ba:	8b 81       	ldd	r24, Y+3	; 0x03
     5bc:	98 2f       	mov	r25, r24
     5be:	99 0f       	add	r25, r25
     5c0:	99 0f       	add	r25, r25
     5c2:	99 0f       	add	r25, r25
     5c4:	8a 81       	ldd	r24, Y+2	; 0x02
     5c6:	82 95       	swap	r24
     5c8:	86 95       	lsr	r24
     5ca:	87 70       	andi	r24, 0x07	; 7
     5cc:	89 0f       	add	r24, r25
     5ce:	80 93 f6 00 	sts	0x00F6, r24	; 0x8000f6 <__TEXT_REGION_LENGTH__+0x7e00f6>
     5d2:	8a 81       	ldd	r24, Y+2	; 0x02
     5d4:	98 2f       	mov	r25, r24
     5d6:	99 0f       	add	r25, r25
     5d8:	99 0f       	add	r25, r25
     5da:	99 0f       	add	r25, r25
     5dc:	89 81       	ldd	r24, Y+1	; 0x01
     5de:	82 95       	swap	r24
     5e0:	86 95       	lsr	r24
     5e2:	87 70       	andi	r24, 0x07	; 7
     5e4:	89 0f       	add	r24, r25
     5e6:	80 93 f5 00 	sts	0x00F5, r24	; 0x8000f5 <__TEXT_REGION_LENGTH__+0x7e00f5>
     5ea:	89 81       	ldd	r24, Y+1	; 0x01
     5ec:	88 0f       	add	r24, r24
     5ee:	88 0f       	add	r24, r24
     5f0:	88 0f       	add	r24, r24
     5f2:	24 ef       	ldi	r18, 0xF4	; 244
     5f4:	30 e0       	ldi	r19, 0x00	; 0
     5f6:	f9 01       	movw	r30, r18
     5f8:	80 83       	st	Z, r24
     5fa:	ef ee       	ldi	r30, 0xEF	; 239
     5fc:	f0 e0       	ldi	r31, 0x00	; 0
     5fe:	90 81       	ld	r25, Z
     600:	d8 01       	movw	r26, r16
     602:	16 96       	adiw	r26, 0x06	; 6
     604:	8c 91       	ld	r24, X
     606:	89 2b       	or	r24, r25
     608:	80 83       	st	Z, r24
     60a:	d9 01       	movw	r26, r18
     60c:	8c 91       	ld	r24, X
     60e:	8b 7f       	andi	r24, 0xFB	; 251
     610:	8c 93       	st	X, r24
     612:	8c 91       	ld	r24, X
     614:	8e 7f       	andi	r24, 0xFE	; 254
     616:	8c 93       	st	X, r24
     618:	80 81       	ld	r24, Z
     61a:	8f 73       	andi	r24, 0x3F	; 63
     61c:	80 83       	st	Z, r24
     61e:	80 81       	ld	r24, Z
     620:	80 68       	ori	r24, 0x80	; 128
     622:	80 83       	st	Z, r24
     624:	80 e0       	ldi	r24, 0x00	; 0
     626:	5e c3       	rjmp	.+1724   	; 0xce4 <__LOCK_REGION_LENGTH__+0x8e4>
     628:	19 82       	std	Y+1, r1	; 0x01
     62a:	1a 82       	std	Y+2, r1	; 0x02
     62c:	1b 82       	std	Y+3, r1	; 0x03
     62e:	1c 82       	std	Y+4, r1	; 0x04
     630:	10 92 f7 00 	sts	0x00F7, r1	; 0x8000f7 <__TEXT_REGION_LENGTH__+0x7e00f7>
     634:	8b 81       	ldd	r24, Y+3	; 0x03
     636:	98 2f       	mov	r25, r24
     638:	99 0f       	add	r25, r25
     63a:	99 0f       	add	r25, r25
     63c:	99 0f       	add	r25, r25
     63e:	8a 81       	ldd	r24, Y+2	; 0x02
     640:	82 95       	swap	r24
     642:	86 95       	lsr	r24
     644:	87 70       	andi	r24, 0x07	; 7
     646:	89 0f       	add	r24, r25
     648:	80 93 f6 00 	sts	0x00F6, r24	; 0x8000f6 <__TEXT_REGION_LENGTH__+0x7e00f6>
     64c:	8a 81       	ldd	r24, Y+2	; 0x02
     64e:	98 2f       	mov	r25, r24
     650:	99 0f       	add	r25, r25
     652:	99 0f       	add	r25, r25
     654:	99 0f       	add	r25, r25
     656:	89 81       	ldd	r24, Y+1	; 0x01
     658:	82 95       	swap	r24
     65a:	86 95       	lsr	r24
     65c:	87 70       	andi	r24, 0x07	; 7
     65e:	89 0f       	add	r24, r25
     660:	80 93 f5 00 	sts	0x00F5, r24	; 0x8000f5 <__TEXT_REGION_LENGTH__+0x7e00f5>
     664:	89 81       	ldd	r24, Y+1	; 0x01
     666:	88 0f       	add	r24, r24
     668:	88 0f       	add	r24, r24
     66a:	88 0f       	add	r24, r24
     66c:	44 ef       	ldi	r20, 0xF4	; 244
     66e:	50 e0       	ldi	r21, 0x00	; 0
     670:	fa 01       	movw	r30, r20
     672:	80 83       	st	Z, r24
     674:	ef ee       	ldi	r30, 0xEF	; 239
     676:	f0 e0       	ldi	r31, 0x00	; 0
     678:	90 81       	ld	r25, Z
     67a:	d8 01       	movw	r26, r16
     67c:	16 96       	adiw	r26, 0x06	; 6
     67e:	8c 91       	ld	r24, X
     680:	16 97       	sbiw	r26, 0x06	; 6
     682:	89 2b       	or	r24, r25
     684:	80 83       	st	Z, r24
     686:	1a 96       	adiw	r26, 0x0a	; 10
     688:	1c 92       	st	X, r1
     68a:	da 01       	movw	r26, r20
     68c:	8c 91       	ld	r24, X
     68e:	84 60       	ori	r24, 0x04	; 4
     690:	8c 93       	st	X, r24
     692:	20 ef       	ldi	r18, 0xF0	; 240
     694:	30 e0       	ldi	r19, 0x00	; 0
     696:	d9 01       	movw	r26, r18
     698:	8c 91       	ld	r24, X
     69a:	8b 7f       	andi	r24, 0xFB	; 251
     69c:	8c 93       	st	X, r24
     69e:	da 01       	movw	r26, r20
     6a0:	8c 91       	ld	r24, X
     6a2:	8e 7f       	andi	r24, 0xFE	; 254
     6a4:	8c 93       	st	X, r24
     6a6:	80 81       	ld	r24, Z
     6a8:	8f 73       	andi	r24, 0x3F	; 63
     6aa:	80 83       	st	Z, r24
     6ac:	80 81       	ld	r24, Z
     6ae:	80 68       	ori	r24, 0x80	; 128
     6b0:	80 83       	st	Z, r24
     6b2:	80 e0       	ldi	r24, 0x00	; 0
     6b4:	17 c3       	rjmp	.+1582   	; 0xce4 <__LOCK_REGION_LENGTH__+0x8e4>
     6b6:	19 82       	std	Y+1, r1	; 0x01
     6b8:	1a 82       	std	Y+2, r1	; 0x02
     6ba:	1b 82       	std	Y+3, r1	; 0x03
     6bc:	1c 82       	std	Y+4, r1	; 0x04
     6be:	10 92 f7 00 	sts	0x00F7, r1	; 0x8000f7 <__TEXT_REGION_LENGTH__+0x7e00f7>
     6c2:	8b 81       	ldd	r24, Y+3	; 0x03
     6c4:	98 2f       	mov	r25, r24
     6c6:	99 0f       	add	r25, r25
     6c8:	99 0f       	add	r25, r25
     6ca:	99 0f       	add	r25, r25
     6cc:	8a 81       	ldd	r24, Y+2	; 0x02
     6ce:	82 95       	swap	r24
     6d0:	86 95       	lsr	r24
     6d2:	87 70       	andi	r24, 0x07	; 7
     6d4:	89 0f       	add	r24, r25
     6d6:	80 93 f6 00 	sts	0x00F6, r24	; 0x8000f6 <__TEXT_REGION_LENGTH__+0x7e00f6>
     6da:	8a 81       	ldd	r24, Y+2	; 0x02
     6dc:	98 2f       	mov	r25, r24
     6de:	99 0f       	add	r25, r25
     6e0:	99 0f       	add	r25, r25
     6e2:	99 0f       	add	r25, r25
     6e4:	89 81       	ldd	r24, Y+1	; 0x01
     6e6:	82 95       	swap	r24
     6e8:	86 95       	lsr	r24
     6ea:	87 70       	andi	r24, 0x07	; 7
     6ec:	89 0f       	add	r24, r25
     6ee:	80 93 f5 00 	sts	0x00F5, r24	; 0x8000f5 <__TEXT_REGION_LENGTH__+0x7e00f5>
     6f2:	89 81       	ldd	r24, Y+1	; 0x01
     6f4:	88 0f       	add	r24, r24
     6f6:	88 0f       	add	r24, r24
     6f8:	88 0f       	add	r24, r24
     6fa:	44 ef       	ldi	r20, 0xF4	; 244
     6fc:	50 e0       	ldi	r21, 0x00	; 0
     6fe:	fa 01       	movw	r30, r20
     700:	80 83       	st	Z, r24
     702:	ef ee       	ldi	r30, 0xEF	; 239
     704:	f0 e0       	ldi	r31, 0x00	; 0
     706:	90 81       	ld	r25, Z
     708:	d8 01       	movw	r26, r16
     70a:	16 96       	adiw	r26, 0x06	; 6
     70c:	8c 91       	ld	r24, X
     70e:	16 97       	sbiw	r26, 0x06	; 6
     710:	89 2b       	or	r24, r25
     712:	80 83       	st	Z, r24
     714:	81 e0       	ldi	r24, 0x01	; 1
     716:	1a 96       	adiw	r26, 0x0a	; 10
     718:	8c 93       	st	X, r24
     71a:	da 01       	movw	r26, r20
     71c:	8c 91       	ld	r24, X
     71e:	84 60       	ori	r24, 0x04	; 4
     720:	8c 93       	st	X, r24
     722:	20 ef       	ldi	r18, 0xF0	; 240
     724:	30 e0       	ldi	r19, 0x00	; 0
     726:	d9 01       	movw	r26, r18
     728:	8c 91       	ld	r24, X
     72a:	84 60       	ori	r24, 0x04	; 4
     72c:	8c 93       	st	X, r24
     72e:	80 81       	ld	r24, Z
     730:	8f 7d       	andi	r24, 0xDF	; 223
     732:	80 83       	st	Z, r24
     734:	da 01       	movw	r26, r20
     736:	8c 91       	ld	r24, X
     738:	8e 7f       	andi	r24, 0xFE	; 254
     73a:	8c 93       	st	X, r24
     73c:	80 81       	ld	r24, Z
     73e:	8f 73       	andi	r24, 0x3F	; 63
     740:	80 83       	st	Z, r24
     742:	80 81       	ld	r24, Z
     744:	80 68       	ori	r24, 0x80	; 128
     746:	80 83       	st	Z, r24
     748:	80 e0       	ldi	r24, 0x00	; 0
     74a:	cc c2       	rjmp	.+1432   	; 0xce4 <__LOCK_REGION_LENGTH__+0x8e4>
     74c:	f8 01       	movw	r30, r16
     74e:	83 85       	ldd	r24, Z+11	; 0x0b
     750:	88 23       	and	r24, r24
     752:	81 f1       	breq	.+96     	; 0x7b4 <__LOCK_REGION_LENGTH__+0x3b4>
     754:	85 81       	ldd	r24, Z+5	; 0x05
     756:	98 2f       	mov	r25, r24
     758:	99 0f       	add	r25, r25
     75a:	99 0f       	add	r25, r25
     75c:	99 0f       	add	r25, r25
     75e:	84 81       	ldd	r24, Z+4	; 0x04
     760:	82 95       	swap	r24
     762:	86 95       	lsr	r24
     764:	87 70       	andi	r24, 0x07	; 7
     766:	89 0f       	add	r24, r25
     768:	80 93 f3 00 	sts	0x00F3, r24	; 0x8000f3 <__TEXT_REGION_LENGTH__+0x7e00f3>
     76c:	84 81       	ldd	r24, Z+4	; 0x04
     76e:	98 2f       	mov	r25, r24
     770:	99 0f       	add	r25, r25
     772:	99 0f       	add	r25, r25
     774:	99 0f       	add	r25, r25
     776:	83 81       	ldd	r24, Z+3	; 0x03
     778:	82 95       	swap	r24
     77a:	86 95       	lsr	r24
     77c:	87 70       	andi	r24, 0x07	; 7
     77e:	89 0f       	add	r24, r25
     780:	80 93 f2 00 	sts	0x00F2, r24	; 0x8000f2 <__TEXT_REGION_LENGTH__+0x7e00f2>
     784:	83 81       	ldd	r24, Z+3	; 0x03
     786:	98 2f       	mov	r25, r24
     788:	99 0f       	add	r25, r25
     78a:	99 0f       	add	r25, r25
     78c:	99 0f       	add	r25, r25
     78e:	82 81       	ldd	r24, Z+2	; 0x02
     790:	82 95       	swap	r24
     792:	86 95       	lsr	r24
     794:	87 70       	andi	r24, 0x07	; 7
     796:	89 0f       	add	r24, r25
     798:	80 93 f1 00 	sts	0x00F1, r24	; 0x8000f1 <__TEXT_REGION_LENGTH__+0x7e00f1>
     79c:	82 81       	ldd	r24, Z+2	; 0x02
     79e:	88 0f       	add	r24, r24
     7a0:	88 0f       	add	r24, r24
     7a2:	88 0f       	add	r24, r24
     7a4:	80 93 f0 00 	sts	0x00F0, r24	; 0x8000f0 <__TEXT_REGION_LENGTH__+0x7e00f0>
     7a8:	ef ee       	ldi	r30, 0xEF	; 239
     7aa:	f0 e0       	ldi	r31, 0x00	; 0
     7ac:	80 81       	ld	r24, Z
     7ae:	80 61       	ori	r24, 0x10	; 16
     7b0:	80 83       	st	Z, r24
     7b2:	17 c0       	rjmp	.+46     	; 0x7e2 <__LOCK_REGION_LENGTH__+0x3e2>
     7b4:	93 81       	ldd	r25, Z+3	; 0x03
     7b6:	82 81       	ldd	r24, Z+2	; 0x02
     7b8:	86 95       	lsr	r24
     7ba:	86 95       	lsr	r24
     7bc:	86 95       	lsr	r24
     7be:	b0 e2       	ldi	r27, 0x20	; 32
     7c0:	9b 9f       	mul	r25, r27
     7c2:	80 0d       	add	r24, r0
     7c4:	11 24       	eor	r1, r1
     7c6:	80 93 f3 00 	sts	0x00F3, r24	; 0x8000f3 <__TEXT_REGION_LENGTH__+0x7e00f3>
     7ca:	f8 01       	movw	r30, r16
     7cc:	82 81       	ldd	r24, Z+2	; 0x02
     7ce:	82 95       	swap	r24
     7d0:	88 0f       	add	r24, r24
     7d2:	80 7e       	andi	r24, 0xE0	; 224
     7d4:	80 93 f2 00 	sts	0x00F2, r24	; 0x8000f2 <__TEXT_REGION_LENGTH__+0x7e00f2>
     7d8:	ef ee       	ldi	r30, 0xEF	; 239
     7da:	f0 e0       	ldi	r31, 0x00	; 0
     7dc:	80 81       	ld	r24, Z
     7de:	8f 7e       	andi	r24, 0xEF	; 239
     7e0:	80 83       	st	Z, r24
     7e2:	8f ef       	ldi	r24, 0xFF	; 255
     7e4:	9f ef       	ldi	r25, 0xFF	; 255
     7e6:	dc 01       	movw	r26, r24
     7e8:	89 83       	std	Y+1, r24	; 0x01
     7ea:	9a 83       	std	Y+2, r25	; 0x02
     7ec:	ab 83       	std	Y+3, r26	; 0x03
     7ee:	bc 83       	std	Y+4, r27	; 0x04
     7f0:	80 93 f7 00 	sts	0x00F7, r24	; 0x8000f7 <__TEXT_REGION_LENGTH__+0x7e00f7>
     7f4:	8b 81       	ldd	r24, Y+3	; 0x03
     7f6:	98 2f       	mov	r25, r24
     7f8:	99 0f       	add	r25, r25
     7fa:	99 0f       	add	r25, r25
     7fc:	99 0f       	add	r25, r25
     7fe:	8a 81       	ldd	r24, Y+2	; 0x02
     800:	82 95       	swap	r24
     802:	86 95       	lsr	r24
     804:	87 70       	andi	r24, 0x07	; 7
     806:	89 0f       	add	r24, r25
     808:	80 93 f6 00 	sts	0x00F6, r24	; 0x8000f6 <__TEXT_REGION_LENGTH__+0x7e00f6>
     80c:	8a 81       	ldd	r24, Y+2	; 0x02
     80e:	98 2f       	mov	r25, r24
     810:	99 0f       	add	r25, r25
     812:	99 0f       	add	r25, r25
     814:	99 0f       	add	r25, r25
     816:	89 81       	ldd	r24, Y+1	; 0x01
     818:	82 95       	swap	r24
     81a:	86 95       	lsr	r24
     81c:	87 70       	andi	r24, 0x07	; 7
     81e:	89 0f       	add	r24, r25
     820:	80 93 f5 00 	sts	0x00F5, r24	; 0x8000f5 <__TEXT_REGION_LENGTH__+0x7e00f5>
     824:	89 81       	ldd	r24, Y+1	; 0x01
     826:	88 0f       	add	r24, r24
     828:	88 0f       	add	r24, r24
     82a:	88 0f       	add	r24, r24
     82c:	24 ef       	ldi	r18, 0xF4	; 244
     82e:	30 e0       	ldi	r19, 0x00	; 0
     830:	d9 01       	movw	r26, r18
     832:	8c 93       	st	X, r24
     834:	ef ee       	ldi	r30, 0xEF	; 239
     836:	f0 e0       	ldi	r31, 0x00	; 0
     838:	90 81       	ld	r25, Z
     83a:	d8 01       	movw	r26, r16
     83c:	16 96       	adiw	r26, 0x06	; 6
     83e:	8c 91       	ld	r24, X
     840:	89 2b       	or	r24, r25
     842:	80 83       	st	Z, r24
     844:	d9 01       	movw	r26, r18
     846:	8c 91       	ld	r24, X
     848:	8b 7f       	andi	r24, 0xFB	; 251
     84a:	8c 93       	st	X, r24
     84c:	8c 91       	ld	r24, X
     84e:	81 60       	ori	r24, 0x01	; 1
     850:	8c 93       	st	X, r24
     852:	80 81       	ld	r24, Z
     854:	8f 73       	andi	r24, 0x3F	; 63
     856:	80 83       	st	Z, r24
     858:	80 81       	ld	r24, Z
     85a:	80 68       	ori	r24, 0x80	; 128
     85c:	80 83       	st	Z, r24
     85e:	80 e0       	ldi	r24, 0x00	; 0
     860:	41 c2       	rjmp	.+1154   	; 0xce4 <__LOCK_REGION_LENGTH__+0x8e4>
     862:	f8 01       	movw	r30, r16
     864:	83 85       	ldd	r24, Z+11	; 0x0b
     866:	88 23       	and	r24, r24
     868:	81 f1       	breq	.+96     	; 0x8ca <__LOCK_REGION_LENGTH__+0x4ca>
     86a:	85 81       	ldd	r24, Z+5	; 0x05
     86c:	98 2f       	mov	r25, r24
     86e:	99 0f       	add	r25, r25
     870:	99 0f       	add	r25, r25
     872:	99 0f       	add	r25, r25
     874:	84 81       	ldd	r24, Z+4	; 0x04
     876:	82 95       	swap	r24
     878:	86 95       	lsr	r24
     87a:	87 70       	andi	r24, 0x07	; 7
     87c:	89 0f       	add	r24, r25
     87e:	80 93 f3 00 	sts	0x00F3, r24	; 0x8000f3 <__TEXT_REGION_LENGTH__+0x7e00f3>
     882:	84 81       	ldd	r24, Z+4	; 0x04
     884:	98 2f       	mov	r25, r24
     886:	99 0f       	add	r25, r25
     888:	99 0f       	add	r25, r25
     88a:	99 0f       	add	r25, r25
     88c:	83 81       	ldd	r24, Z+3	; 0x03
     88e:	82 95       	swap	r24
     890:	86 95       	lsr	r24
     892:	87 70       	andi	r24, 0x07	; 7
     894:	89 0f       	add	r24, r25
     896:	80 93 f2 00 	sts	0x00F2, r24	; 0x8000f2 <__TEXT_REGION_LENGTH__+0x7e00f2>
     89a:	83 81       	ldd	r24, Z+3	; 0x03
     89c:	98 2f       	mov	r25, r24
     89e:	99 0f       	add	r25, r25
     8a0:	99 0f       	add	r25, r25
     8a2:	99 0f       	add	r25, r25
     8a4:	82 81       	ldd	r24, Z+2	; 0x02
     8a6:	82 95       	swap	r24
     8a8:	86 95       	lsr	r24
     8aa:	87 70       	andi	r24, 0x07	; 7
     8ac:	89 0f       	add	r24, r25
     8ae:	80 93 f1 00 	sts	0x00F1, r24	; 0x8000f1 <__TEXT_REGION_LENGTH__+0x7e00f1>
     8b2:	82 81       	ldd	r24, Z+2	; 0x02
     8b4:	88 0f       	add	r24, r24
     8b6:	88 0f       	add	r24, r24
     8b8:	88 0f       	add	r24, r24
     8ba:	80 93 f0 00 	sts	0x00F0, r24	; 0x8000f0 <__TEXT_REGION_LENGTH__+0x7e00f0>
     8be:	ef ee       	ldi	r30, 0xEF	; 239
     8c0:	f0 e0       	ldi	r31, 0x00	; 0
     8c2:	80 81       	ld	r24, Z
     8c4:	80 61       	ori	r24, 0x10	; 16
     8c6:	80 83       	st	Z, r24
     8c8:	17 c0       	rjmp	.+46     	; 0x8f8 <__LOCK_REGION_LENGTH__+0x4f8>
     8ca:	93 81       	ldd	r25, Z+3	; 0x03
     8cc:	82 81       	ldd	r24, Z+2	; 0x02
     8ce:	86 95       	lsr	r24
     8d0:	86 95       	lsr	r24
     8d2:	86 95       	lsr	r24
     8d4:	b0 e2       	ldi	r27, 0x20	; 32
     8d6:	9b 9f       	mul	r25, r27
     8d8:	80 0d       	add	r24, r0
     8da:	11 24       	eor	r1, r1
     8dc:	80 93 f3 00 	sts	0x00F3, r24	; 0x8000f3 <__TEXT_REGION_LENGTH__+0x7e00f3>
     8e0:	f8 01       	movw	r30, r16
     8e2:	82 81       	ldd	r24, Z+2	; 0x02
     8e4:	82 95       	swap	r24
     8e6:	88 0f       	add	r24, r24
     8e8:	80 7e       	andi	r24, 0xE0	; 224
     8ea:	80 93 f2 00 	sts	0x00F2, r24	; 0x8000f2 <__TEXT_REGION_LENGTH__+0x7e00f2>
     8ee:	ef ee       	ldi	r30, 0xEF	; 239
     8f0:	f0 e0       	ldi	r31, 0x00	; 0
     8f2:	80 81       	ld	r24, Z
     8f4:	8f 7e       	andi	r24, 0xEF	; 239
     8f6:	80 83       	st	Z, r24
     8f8:	8f ef       	ldi	r24, 0xFF	; 255
     8fa:	9f ef       	ldi	r25, 0xFF	; 255
     8fc:	dc 01       	movw	r26, r24
     8fe:	89 83       	std	Y+1, r24	; 0x01
     900:	9a 83       	std	Y+2, r25	; 0x02
     902:	ab 83       	std	Y+3, r26	; 0x03
     904:	bc 83       	std	Y+4, r27	; 0x04
     906:	80 93 f7 00 	sts	0x00F7, r24	; 0x8000f7 <__TEXT_REGION_LENGTH__+0x7e00f7>
     90a:	8b 81       	ldd	r24, Y+3	; 0x03
     90c:	98 2f       	mov	r25, r24
     90e:	99 0f       	add	r25, r25
     910:	99 0f       	add	r25, r25
     912:	99 0f       	add	r25, r25
     914:	8a 81       	ldd	r24, Y+2	; 0x02
     916:	82 95       	swap	r24
     918:	86 95       	lsr	r24
     91a:	87 70       	andi	r24, 0x07	; 7
     91c:	89 0f       	add	r24, r25
     91e:	80 93 f6 00 	sts	0x00F6, r24	; 0x8000f6 <__TEXT_REGION_LENGTH__+0x7e00f6>
     922:	8a 81       	ldd	r24, Y+2	; 0x02
     924:	98 2f       	mov	r25, r24
     926:	99 0f       	add	r25, r25
     928:	99 0f       	add	r25, r25
     92a:	99 0f       	add	r25, r25
     92c:	89 81       	ldd	r24, Y+1	; 0x01
     92e:	82 95       	swap	r24
     930:	86 95       	lsr	r24
     932:	87 70       	andi	r24, 0x07	; 7
     934:	89 0f       	add	r24, r25
     936:	80 93 f5 00 	sts	0x00F5, r24	; 0x8000f5 <__TEXT_REGION_LENGTH__+0x7e00f5>
     93a:	89 81       	ldd	r24, Y+1	; 0x01
     93c:	88 0f       	add	r24, r24
     93e:	88 0f       	add	r24, r24
     940:	88 0f       	add	r24, r24
     942:	44 ef       	ldi	r20, 0xF4	; 244
     944:	50 e0       	ldi	r21, 0x00	; 0
     946:	da 01       	movw	r26, r20
     948:	8c 93       	st	X, r24
     94a:	ef ee       	ldi	r30, 0xEF	; 239
     94c:	f0 e0       	ldi	r31, 0x00	; 0
     94e:	90 81       	ld	r25, Z
     950:	d8 01       	movw	r26, r16
     952:	16 96       	adiw	r26, 0x06	; 6
     954:	8c 91       	ld	r24, X
     956:	16 97       	sbiw	r26, 0x06	; 6
     958:	89 2b       	or	r24, r25
     95a:	80 83       	st	Z, r24
     95c:	1a 96       	adiw	r26, 0x0a	; 10
     95e:	1c 92       	st	X, r1
     960:	da 01       	movw	r26, r20
     962:	8c 91       	ld	r24, X
     964:	84 60       	ori	r24, 0x04	; 4
     966:	8c 93       	st	X, r24
     968:	20 ef       	ldi	r18, 0xF0	; 240
     96a:	30 e0       	ldi	r19, 0x00	; 0
     96c:	d9 01       	movw	r26, r18
     96e:	8c 91       	ld	r24, X
     970:	8b 7f       	andi	r24, 0xFB	; 251
     972:	8c 93       	st	X, r24
     974:	da 01       	movw	r26, r20
     976:	8c 91       	ld	r24, X
     978:	81 60       	ori	r24, 0x01	; 1
     97a:	8c 93       	st	X, r24
     97c:	80 81       	ld	r24, Z
     97e:	8f 73       	andi	r24, 0x3F	; 63
     980:	80 83       	st	Z, r24
     982:	80 81       	ld	r24, Z
     984:	80 68       	ori	r24, 0x80	; 128
     986:	80 83       	st	Z, r24
     988:	80 e0       	ldi	r24, 0x00	; 0
     98a:	ac c1       	rjmp	.+856    	; 0xce4 <__LOCK_REGION_LENGTH__+0x8e4>
     98c:	f8 01       	movw	r30, r16
     98e:	83 85       	ldd	r24, Z+11	; 0x0b
     990:	88 23       	and	r24, r24
     992:	81 f1       	breq	.+96     	; 0x9f4 <__LOCK_REGION_LENGTH__+0x5f4>
     994:	85 81       	ldd	r24, Z+5	; 0x05
     996:	98 2f       	mov	r25, r24
     998:	99 0f       	add	r25, r25
     99a:	99 0f       	add	r25, r25
     99c:	99 0f       	add	r25, r25
     99e:	84 81       	ldd	r24, Z+4	; 0x04
     9a0:	82 95       	swap	r24
     9a2:	86 95       	lsr	r24
     9a4:	87 70       	andi	r24, 0x07	; 7
     9a6:	89 0f       	add	r24, r25
     9a8:	80 93 f3 00 	sts	0x00F3, r24	; 0x8000f3 <__TEXT_REGION_LENGTH__+0x7e00f3>
     9ac:	84 81       	ldd	r24, Z+4	; 0x04
     9ae:	98 2f       	mov	r25, r24
     9b0:	99 0f       	add	r25, r25
     9b2:	99 0f       	add	r25, r25
     9b4:	99 0f       	add	r25, r25
     9b6:	83 81       	ldd	r24, Z+3	; 0x03
     9b8:	82 95       	swap	r24
     9ba:	86 95       	lsr	r24
     9bc:	87 70       	andi	r24, 0x07	; 7
     9be:	89 0f       	add	r24, r25
     9c0:	80 93 f2 00 	sts	0x00F2, r24	; 0x8000f2 <__TEXT_REGION_LENGTH__+0x7e00f2>
     9c4:	83 81       	ldd	r24, Z+3	; 0x03
     9c6:	98 2f       	mov	r25, r24
     9c8:	99 0f       	add	r25, r25
     9ca:	99 0f       	add	r25, r25
     9cc:	99 0f       	add	r25, r25
     9ce:	82 81       	ldd	r24, Z+2	; 0x02
     9d0:	82 95       	swap	r24
     9d2:	86 95       	lsr	r24
     9d4:	87 70       	andi	r24, 0x07	; 7
     9d6:	89 0f       	add	r24, r25
     9d8:	80 93 f1 00 	sts	0x00F1, r24	; 0x8000f1 <__TEXT_REGION_LENGTH__+0x7e00f1>
     9dc:	82 81       	ldd	r24, Z+2	; 0x02
     9de:	88 0f       	add	r24, r24
     9e0:	88 0f       	add	r24, r24
     9e2:	88 0f       	add	r24, r24
     9e4:	80 93 f0 00 	sts	0x00F0, r24	; 0x8000f0 <__TEXT_REGION_LENGTH__+0x7e00f0>
     9e8:	ef ee       	ldi	r30, 0xEF	; 239
     9ea:	f0 e0       	ldi	r31, 0x00	; 0
     9ec:	80 81       	ld	r24, Z
     9ee:	80 61       	ori	r24, 0x10	; 16
     9f0:	80 83       	st	Z, r24
     9f2:	17 c0       	rjmp	.+46     	; 0xa22 <__LOCK_REGION_LENGTH__+0x622>
     9f4:	93 81       	ldd	r25, Z+3	; 0x03
     9f6:	82 81       	ldd	r24, Z+2	; 0x02
     9f8:	86 95       	lsr	r24
     9fa:	86 95       	lsr	r24
     9fc:	86 95       	lsr	r24
     9fe:	b0 e2       	ldi	r27, 0x20	; 32
     a00:	9b 9f       	mul	r25, r27
     a02:	80 0d       	add	r24, r0
     a04:	11 24       	eor	r1, r1
     a06:	80 93 f3 00 	sts	0x00F3, r24	; 0x8000f3 <__TEXT_REGION_LENGTH__+0x7e00f3>
     a0a:	f8 01       	movw	r30, r16
     a0c:	82 81       	ldd	r24, Z+2	; 0x02
     a0e:	82 95       	swap	r24
     a10:	88 0f       	add	r24, r24
     a12:	80 7e       	andi	r24, 0xE0	; 224
     a14:	80 93 f2 00 	sts	0x00F2, r24	; 0x8000f2 <__TEXT_REGION_LENGTH__+0x7e00f2>
     a18:	ef ee       	ldi	r30, 0xEF	; 239
     a1a:	f0 e0       	ldi	r31, 0x00	; 0
     a1c:	80 81       	ld	r24, Z
     a1e:	8f 7e       	andi	r24, 0xEF	; 239
     a20:	80 83       	st	Z, r24
     a22:	8f ef       	ldi	r24, 0xFF	; 255
     a24:	9f ef       	ldi	r25, 0xFF	; 255
     a26:	dc 01       	movw	r26, r24
     a28:	89 83       	std	Y+1, r24	; 0x01
     a2a:	9a 83       	std	Y+2, r25	; 0x02
     a2c:	ab 83       	std	Y+3, r26	; 0x03
     a2e:	bc 83       	std	Y+4, r27	; 0x04
     a30:	80 93 f7 00 	sts	0x00F7, r24	; 0x8000f7 <__TEXT_REGION_LENGTH__+0x7e00f7>
     a34:	8b 81       	ldd	r24, Y+3	; 0x03
     a36:	98 2f       	mov	r25, r24
     a38:	99 0f       	add	r25, r25
     a3a:	99 0f       	add	r25, r25
     a3c:	99 0f       	add	r25, r25
     a3e:	8a 81       	ldd	r24, Y+2	; 0x02
     a40:	82 95       	swap	r24
     a42:	86 95       	lsr	r24
     a44:	87 70       	andi	r24, 0x07	; 7
     a46:	89 0f       	add	r24, r25
     a48:	80 93 f6 00 	sts	0x00F6, r24	; 0x8000f6 <__TEXT_REGION_LENGTH__+0x7e00f6>
     a4c:	8a 81       	ldd	r24, Y+2	; 0x02
     a4e:	98 2f       	mov	r25, r24
     a50:	99 0f       	add	r25, r25
     a52:	99 0f       	add	r25, r25
     a54:	99 0f       	add	r25, r25
     a56:	89 81       	ldd	r24, Y+1	; 0x01
     a58:	82 95       	swap	r24
     a5a:	86 95       	lsr	r24
     a5c:	87 70       	andi	r24, 0x07	; 7
     a5e:	89 0f       	add	r24, r25
     a60:	80 93 f5 00 	sts	0x00F5, r24	; 0x8000f5 <__TEXT_REGION_LENGTH__+0x7e00f5>
     a64:	89 81       	ldd	r24, Y+1	; 0x01
     a66:	88 0f       	add	r24, r24
     a68:	88 0f       	add	r24, r24
     a6a:	88 0f       	add	r24, r24
     a6c:	44 ef       	ldi	r20, 0xF4	; 244
     a6e:	50 e0       	ldi	r21, 0x00	; 0
     a70:	da 01       	movw	r26, r20
     a72:	8c 93       	st	X, r24
     a74:	ef ee       	ldi	r30, 0xEF	; 239
     a76:	f0 e0       	ldi	r31, 0x00	; 0
     a78:	90 81       	ld	r25, Z
     a7a:	d8 01       	movw	r26, r16
     a7c:	16 96       	adiw	r26, 0x06	; 6
     a7e:	8c 91       	ld	r24, X
     a80:	16 97       	sbiw	r26, 0x06	; 6
     a82:	89 2b       	or	r24, r25
     a84:	80 83       	st	Z, r24
     a86:	81 e0       	ldi	r24, 0x01	; 1
     a88:	1a 96       	adiw	r26, 0x0a	; 10
     a8a:	8c 93       	st	X, r24
     a8c:	da 01       	movw	r26, r20
     a8e:	8c 91       	ld	r24, X
     a90:	84 60       	ori	r24, 0x04	; 4
     a92:	8c 93       	st	X, r24
     a94:	20 ef       	ldi	r18, 0xF0	; 240
     a96:	30 e0       	ldi	r19, 0x00	; 0
     a98:	d9 01       	movw	r26, r18
     a9a:	8c 91       	ld	r24, X
     a9c:	84 60       	ori	r24, 0x04	; 4
     a9e:	8c 93       	st	X, r24
     aa0:	80 81       	ld	r24, Z
     aa2:	8f 7d       	andi	r24, 0xDF	; 223
     aa4:	80 83       	st	Z, r24
     aa6:	da 01       	movw	r26, r20
     aa8:	8c 91       	ld	r24, X
     aaa:	81 60       	ori	r24, 0x01	; 1
     aac:	8c 93       	st	X, r24
     aae:	80 81       	ld	r24, Z
     ab0:	8f 73       	andi	r24, 0x3F	; 63
     ab2:	80 83       	st	Z, r24
     ab4:	80 81       	ld	r24, Z
     ab6:	80 68       	ori	r24, 0x80	; 128
     ab8:	80 83       	st	Z, r24
     aba:	80 e0       	ldi	r24, 0x00	; 0
     abc:	13 c1       	rjmp	.+550    	; 0xce4 <__LOCK_REGION_LENGTH__+0x8e4>
     abe:	d8 01       	movw	r26, r16
     ac0:	17 96       	adiw	r26, 0x07	; 7
     ac2:	ed 91       	ld	r30, X+
     ac4:	fc 91       	ld	r31, X
     ac6:	18 97       	sbiw	r26, 0x08	; 8
     ac8:	e8 0f       	add	r30, r24
     aca:	f1 1d       	adc	r31, r1
     acc:	90 81       	ld	r25, Z
     ace:	f9 01       	movw	r30, r18
     ad0:	90 83       	st	Z, r25
     ad2:	8f 5f       	subi	r24, 0xFF	; 255
     ad4:	16 96       	adiw	r26, 0x06	; 6
     ad6:	9c 91       	ld	r25, X
     ad8:	89 17       	cp	r24, r25
     ada:	88 f3       	brcs	.-30     	; 0xabe <__LOCK_REGION_LENGTH__+0x6be>
     adc:	19 82       	std	Y+1, r1	; 0x01
     ade:	1a 82       	std	Y+2, r1	; 0x02
     ae0:	1b 82       	std	Y+3, r1	; 0x03
     ae2:	1c 82       	std	Y+4, r1	; 0x04
     ae4:	10 92 f7 00 	sts	0x00F7, r1	; 0x8000f7 <__TEXT_REGION_LENGTH__+0x7e00f7>
     ae8:	8b 81       	ldd	r24, Y+3	; 0x03
     aea:	98 2f       	mov	r25, r24
     aec:	99 0f       	add	r25, r25
     aee:	99 0f       	add	r25, r25
     af0:	99 0f       	add	r25, r25
     af2:	8a 81       	ldd	r24, Y+2	; 0x02
     af4:	82 95       	swap	r24
     af6:	86 95       	lsr	r24
     af8:	87 70       	andi	r24, 0x07	; 7
     afa:	89 0f       	add	r24, r25
     afc:	80 93 f6 00 	sts	0x00F6, r24	; 0x8000f6 <__TEXT_REGION_LENGTH__+0x7e00f6>
     b00:	8a 81       	ldd	r24, Y+2	; 0x02
     b02:	98 2f       	mov	r25, r24
     b04:	99 0f       	add	r25, r25
     b06:	99 0f       	add	r25, r25
     b08:	99 0f       	add	r25, r25
     b0a:	89 81       	ldd	r24, Y+1	; 0x01
     b0c:	82 95       	swap	r24
     b0e:	86 95       	lsr	r24
     b10:	87 70       	andi	r24, 0x07	; 7
     b12:	89 0f       	add	r24, r25
     b14:	80 93 f5 00 	sts	0x00F5, r24	; 0x8000f5 <__TEXT_REGION_LENGTH__+0x7e00f5>
     b18:	89 81       	ldd	r24, Y+1	; 0x01
     b1a:	88 0f       	add	r24, r24
     b1c:	88 0f       	add	r24, r24
     b1e:	88 0f       	add	r24, r24
     b20:	44 ef       	ldi	r20, 0xF4	; 244
     b22:	50 e0       	ldi	r21, 0x00	; 0
     b24:	da 01       	movw	r26, r20
     b26:	8c 93       	st	X, r24
     b28:	ef ee       	ldi	r30, 0xEF	; 239
     b2a:	f0 e0       	ldi	r31, 0x00	; 0
     b2c:	90 81       	ld	r25, Z
     b2e:	d8 01       	movw	r26, r16
     b30:	16 96       	adiw	r26, 0x06	; 6
     b32:	8c 91       	ld	r24, X
     b34:	16 97       	sbiw	r26, 0x06	; 6
     b36:	89 2b       	or	r24, r25
     b38:	80 83       	st	Z, r24
     b3a:	81 e0       	ldi	r24, 0x01	; 1
     b3c:	1a 96       	adiw	r26, 0x0a	; 10
     b3e:	8c 93       	st	X, r24
     b40:	da 01       	movw	r26, r20
     b42:	8c 91       	ld	r24, X
     b44:	84 60       	ori	r24, 0x04	; 4
     b46:	8c 93       	st	X, r24
     b48:	20 ef       	ldi	r18, 0xF0	; 240
     b4a:	30 e0       	ldi	r19, 0x00	; 0
     b4c:	d9 01       	movw	r26, r18
     b4e:	8c 91       	ld	r24, X
     b50:	84 60       	ori	r24, 0x04	; 4
     b52:	8c 93       	st	X, r24
     b54:	80 81       	ld	r24, Z
     b56:	80 62       	ori	r24, 0x20	; 32
     b58:	80 83       	st	Z, r24
     b5a:	da 01       	movw	r26, r20
     b5c:	8c 91       	ld	r24, X
     b5e:	8e 7f       	andi	r24, 0xFE	; 254
     b60:	8c 93       	st	X, r24
     b62:	80 81       	ld	r24, Z
     b64:	8f 73       	andi	r24, 0x3F	; 63
     b66:	80 83       	st	Z, r24
     b68:	80 81       	ld	r24, Z
     b6a:	80 68       	ori	r24, 0x80	; 128
     b6c:	80 83       	st	Z, r24
     b6e:	80 e0       	ldi	r24, 0x00	; 0
     b70:	b9 c0       	rjmp	.+370    	; 0xce4 <__LOCK_REGION_LENGTH__+0x8e4>
     b72:	f8 01       	movw	r30, r16
     b74:	83 85       	ldd	r24, Z+11	; 0x0b
     b76:	88 23       	and	r24, r24
     b78:	81 f1       	breq	.+96     	; 0xbda <__LOCK_REGION_LENGTH__+0x7da>
     b7a:	85 81       	ldd	r24, Z+5	; 0x05
     b7c:	98 2f       	mov	r25, r24
     b7e:	99 0f       	add	r25, r25
     b80:	99 0f       	add	r25, r25
     b82:	99 0f       	add	r25, r25
     b84:	84 81       	ldd	r24, Z+4	; 0x04
     b86:	82 95       	swap	r24
     b88:	86 95       	lsr	r24
     b8a:	87 70       	andi	r24, 0x07	; 7
     b8c:	89 0f       	add	r24, r25
     b8e:	80 93 f3 00 	sts	0x00F3, r24	; 0x8000f3 <__TEXT_REGION_LENGTH__+0x7e00f3>
     b92:	84 81       	ldd	r24, Z+4	; 0x04
     b94:	98 2f       	mov	r25, r24
     b96:	99 0f       	add	r25, r25
     b98:	99 0f       	add	r25, r25
     b9a:	99 0f       	add	r25, r25
     b9c:	83 81       	ldd	r24, Z+3	; 0x03
     b9e:	82 95       	swap	r24
     ba0:	86 95       	lsr	r24
     ba2:	87 70       	andi	r24, 0x07	; 7
     ba4:	89 0f       	add	r24, r25
     ba6:	80 93 f2 00 	sts	0x00F2, r24	; 0x8000f2 <__TEXT_REGION_LENGTH__+0x7e00f2>
     baa:	83 81       	ldd	r24, Z+3	; 0x03
     bac:	98 2f       	mov	r25, r24
     bae:	99 0f       	add	r25, r25
     bb0:	99 0f       	add	r25, r25
     bb2:	99 0f       	add	r25, r25
     bb4:	82 81       	ldd	r24, Z+2	; 0x02
     bb6:	82 95       	swap	r24
     bb8:	86 95       	lsr	r24
     bba:	87 70       	andi	r24, 0x07	; 7
     bbc:	89 0f       	add	r24, r25
     bbe:	80 93 f1 00 	sts	0x00F1, r24	; 0x8000f1 <__TEXT_REGION_LENGTH__+0x7e00f1>
     bc2:	82 81       	ldd	r24, Z+2	; 0x02
     bc4:	88 0f       	add	r24, r24
     bc6:	88 0f       	add	r24, r24
     bc8:	88 0f       	add	r24, r24
     bca:	80 93 f0 00 	sts	0x00F0, r24	; 0x8000f0 <__TEXT_REGION_LENGTH__+0x7e00f0>
     bce:	ef ee       	ldi	r30, 0xEF	; 239
     bd0:	f0 e0       	ldi	r31, 0x00	; 0
     bd2:	80 81       	ld	r24, Z
     bd4:	80 61       	ori	r24, 0x10	; 16
     bd6:	80 83       	st	Z, r24
     bd8:	17 c0       	rjmp	.+46     	; 0xc08 <__LOCK_REGION_LENGTH__+0x808>
     bda:	93 81       	ldd	r25, Z+3	; 0x03
     bdc:	82 81       	ldd	r24, Z+2	; 0x02
     bde:	86 95       	lsr	r24
     be0:	86 95       	lsr	r24
     be2:	86 95       	lsr	r24
     be4:	b0 e2       	ldi	r27, 0x20	; 32
     be6:	9b 9f       	mul	r25, r27
     be8:	80 0d       	add	r24, r0
     bea:	11 24       	eor	r1, r1
     bec:	80 93 f3 00 	sts	0x00F3, r24	; 0x8000f3 <__TEXT_REGION_LENGTH__+0x7e00f3>
     bf0:	f8 01       	movw	r30, r16
     bf2:	82 81       	ldd	r24, Z+2	; 0x02
     bf4:	82 95       	swap	r24
     bf6:	88 0f       	add	r24, r24
     bf8:	80 7e       	andi	r24, 0xE0	; 224
     bfa:	80 93 f2 00 	sts	0x00F2, r24	; 0x8000f2 <__TEXT_REGION_LENGTH__+0x7e00f2>
     bfe:	ef ee       	ldi	r30, 0xEF	; 239
     c00:	f0 e0       	ldi	r31, 0x00	; 0
     c02:	80 81       	ld	r24, Z
     c04:	8f 7e       	andi	r24, 0xEF	; 239
     c06:	80 83       	st	Z, r24
     c08:	d8 01       	movw	r26, r16
     c0a:	16 96       	adiw	r26, 0x06	; 6
     c0c:	8c 91       	ld	r24, X
     c0e:	88 23       	and	r24, r24
     c10:	91 f0       	breq	.+36     	; 0xc36 <__LOCK_REGION_LENGTH__+0x836>
     c12:	80 e0       	ldi	r24, 0x00	; 0
     c14:	2a ef       	ldi	r18, 0xFA	; 250
     c16:	30 e0       	ldi	r19, 0x00	; 0
     c18:	d8 01       	movw	r26, r16
     c1a:	17 96       	adiw	r26, 0x07	; 7
     c1c:	ed 91       	ld	r30, X+
     c1e:	fc 91       	ld	r31, X
     c20:	18 97       	sbiw	r26, 0x08	; 8
     c22:	e8 0f       	add	r30, r24
     c24:	f1 1d       	adc	r31, r1
     c26:	90 81       	ld	r25, Z
     c28:	f9 01       	movw	r30, r18
     c2a:	90 83       	st	Z, r25
     c2c:	8f 5f       	subi	r24, 0xFF	; 255
     c2e:	16 96       	adiw	r26, 0x06	; 6
     c30:	9c 91       	ld	r25, X
     c32:	89 17       	cp	r24, r25
     c34:	88 f3       	brcs	.-30     	; 0xc18 <__LOCK_REGION_LENGTH__+0x818>
     c36:	8f ef       	ldi	r24, 0xFF	; 255
     c38:	9f ef       	ldi	r25, 0xFF	; 255
     c3a:	dc 01       	movw	r26, r24
     c3c:	89 83       	std	Y+1, r24	; 0x01
     c3e:	9a 83       	std	Y+2, r25	; 0x02
     c40:	ab 83       	std	Y+3, r26	; 0x03
     c42:	bc 83       	std	Y+4, r27	; 0x04
     c44:	80 93 f7 00 	sts	0x00F7, r24	; 0x8000f7 <__TEXT_REGION_LENGTH__+0x7e00f7>
     c48:	8b 81       	ldd	r24, Y+3	; 0x03
     c4a:	98 2f       	mov	r25, r24
     c4c:	99 0f       	add	r25, r25
     c4e:	99 0f       	add	r25, r25
     c50:	99 0f       	add	r25, r25
     c52:	8a 81       	ldd	r24, Y+2	; 0x02
     c54:	82 95       	swap	r24
     c56:	86 95       	lsr	r24
     c58:	87 70       	andi	r24, 0x07	; 7
     c5a:	89 0f       	add	r24, r25
     c5c:	80 93 f6 00 	sts	0x00F6, r24	; 0x8000f6 <__TEXT_REGION_LENGTH__+0x7e00f6>
     c60:	8a 81       	ldd	r24, Y+2	; 0x02
     c62:	98 2f       	mov	r25, r24
     c64:	99 0f       	add	r25, r25
     c66:	99 0f       	add	r25, r25
     c68:	99 0f       	add	r25, r25
     c6a:	89 81       	ldd	r24, Y+1	; 0x01
     c6c:	82 95       	swap	r24
     c6e:	86 95       	lsr	r24
     c70:	87 70       	andi	r24, 0x07	; 7
     c72:	89 0f       	add	r24, r25
     c74:	80 93 f5 00 	sts	0x00F5, r24	; 0x8000f5 <__TEXT_REGION_LENGTH__+0x7e00f5>
     c78:	89 81       	ldd	r24, Y+1	; 0x01
     c7a:	88 0f       	add	r24, r24
     c7c:	88 0f       	add	r24, r24
     c7e:	88 0f       	add	r24, r24
     c80:	44 ef       	ldi	r20, 0xF4	; 244
     c82:	50 e0       	ldi	r21, 0x00	; 0
     c84:	da 01       	movw	r26, r20
     c86:	8c 93       	st	X, r24
     c88:	ef ee       	ldi	r30, 0xEF	; 239
     c8a:	f0 e0       	ldi	r31, 0x00	; 0
     c8c:	90 81       	ld	r25, Z
     c8e:	d8 01       	movw	r26, r16
     c90:	16 96       	adiw	r26, 0x06	; 6
     c92:	8c 91       	ld	r24, X
     c94:	16 97       	sbiw	r26, 0x06	; 6
     c96:	89 2b       	or	r24, r25
     c98:	80 83       	st	Z, r24
     c9a:	81 e0       	ldi	r24, 0x01	; 1
     c9c:	1a 96       	adiw	r26, 0x0a	; 10
     c9e:	8c 93       	st	X, r24
     ca0:	da 01       	movw	r26, r20
     ca2:	8c 91       	ld	r24, X
     ca4:	84 60       	ori	r24, 0x04	; 4
     ca6:	8c 93       	st	X, r24
     ca8:	20 ef       	ldi	r18, 0xF0	; 240
     caa:	30 e0       	ldi	r19, 0x00	; 0
     cac:	d9 01       	movw	r26, r18
     cae:	8c 91       	ld	r24, X
     cb0:	84 60       	ori	r24, 0x04	; 4
     cb2:	8c 93       	st	X, r24
     cb4:	80 81       	ld	r24, Z
     cb6:	80 62       	ori	r24, 0x20	; 32
     cb8:	80 83       	st	Z, r24
     cba:	da 01       	movw	r26, r20
     cbc:	8c 91       	ld	r24, X
     cbe:	81 60       	ori	r24, 0x01	; 1
     cc0:	8c 93       	st	X, r24
     cc2:	80 81       	ld	r24, Z
     cc4:	8f 73       	andi	r24, 0x3F	; 63
     cc6:	80 83       	st	Z, r24
     cc8:	80 81       	ld	r24, Z
     cca:	80 68       	ori	r24, 0x80	; 128
     ccc:	80 83       	st	Z, r24
     cce:	80 e0       	ldi	r24, 0x00	; 0
     cd0:	09 c0       	rjmp	.+18     	; 0xce4 <__LOCK_REGION_LENGTH__+0x8e4>
     cd2:	f8 01       	movw	r30, r16
     cd4:	11 86       	std	Z+9, r1	; 0x09
     cd6:	80 e0       	ldi	r24, 0x00	; 0
     cd8:	05 c0       	rjmp	.+10     	; 0xce4 <__LOCK_REGION_LENGTH__+0x8e4>
     cda:	8f e1       	ldi	r24, 0x1F	; 31
     cdc:	d8 01       	movw	r26, r16
     cde:	19 96       	adiw	r26, 0x09	; 9
     ce0:	8c 93       	st	X, r24
     ce2:	8f ef       	ldi	r24, 0xFF	; 255
     ce4:	0f 90       	pop	r0
     ce6:	0f 90       	pop	r0
     ce8:	0f 90       	pop	r0
     cea:	0f 90       	pop	r0
     cec:	df 91       	pop	r29
     cee:	cf 91       	pop	r28
     cf0:	1f 91       	pop	r17
     cf2:	0f 91       	pop	r16
     cf4:	08 95       	ret

00000cf6 <can_get_data>:
     cf6:	cf 93       	push	r28
     cf8:	df 93       	push	r29
     cfa:	bc 01       	movw	r22, r24
     cfc:	80 91 ef 00 	lds	r24, 0x00EF	; 0x8000ef <__TEXT_REGION_LENGTH__+0x7e00ef>
     d00:	8f 70       	andi	r24, 0x0F	; 15
     d02:	99 f0       	breq	.+38     	; 0xd2a <can_get_data+0x34>
     d04:	90 e0       	ldi	r25, 0x00	; 0
     d06:	ca ef       	ldi	r28, 0xFA	; 250
     d08:	d0 e0       	ldi	r29, 0x00	; 0
     d0a:	af ee       	ldi	r26, 0xEF	; 239
     d0c:	b0 e0       	ldi	r27, 0x00	; 0
     d0e:	28 81       	ld	r18, Y
     d10:	fb 01       	movw	r30, r22
     d12:	e9 0f       	add	r30, r25
     d14:	f1 1d       	adc	r31, r1
     d16:	20 83       	st	Z, r18
     d18:	9f 5f       	subi	r25, 0xFF	; 255
     d1a:	2c 91       	ld	r18, X
     d1c:	49 2f       	mov	r20, r25
     d1e:	50 e0       	ldi	r21, 0x00	; 0
     d20:	2f 70       	andi	r18, 0x0F	; 15
     d22:	30 e0       	ldi	r19, 0x00	; 0
     d24:	42 17       	cp	r20, r18
     d26:	53 07       	cpc	r21, r19
     d28:	94 f3       	brlt	.-28     	; 0xd0e <can_get_data+0x18>
     d2a:	df 91       	pop	r29
     d2c:	cf 91       	pop	r28
     d2e:	08 95       	ret

00000d30 <can_fixed_baudrate>:
//! @return Baudrate Status
//!         fixed = 1: baudrate performed
//------------------------------------------------------------------------------
U8 can_fixed_baudrate(U8 mode)
{
    Can_reset();
     d30:	81 e0       	ldi	r24, 0x01	; 1
     d32:	80 93 d8 00 	sts	0x00D8, r24	; 0x8000d8 <__TEXT_REGION_LENGTH__+0x7e00d8>
    Can_conf_bt();
     d36:	82 e0       	ldi	r24, 0x02	; 2
     d38:	80 93 e2 00 	sts	0x00E2, r24	; 0x8000e2 <__TEXT_REGION_LENGTH__+0x7e00e2>
     d3c:	84 e0       	ldi	r24, 0x04	; 4
     d3e:	80 93 e3 00 	sts	0x00E3, r24	; 0x8000e3 <__TEXT_REGION_LENGTH__+0x7e00e3>
     d42:	83 e1       	ldi	r24, 0x13	; 19
     d44:	80 93 e4 00 	sts	0x00E4, r24	; 0x8000e4 <__TEXT_REGION_LENGTH__+0x7e00e4>
    return 1;
}
     d48:	81 e0       	ldi	r24, 0x01	; 1
     d4a:	08 95       	ret

00000d4c <can_init>:
//!         ==0: research of bit timing configuration failed
//!         ==1: baudrate performed 
//!
//------------------------------------------------------------------------------
U8 can_init(U8 mode)
{
     d4c:	f1 df       	rcall	.-30     	; 0xd30 <can_fixed_baudrate>
     d4e:	88 23       	and	r24, r24
     d50:	39 f0       	breq	.+14     	; 0xd60 <can_init+0x14>
     d52:	40 da       	rcall	.-2944   	; 0x1d4 <can_clear_all_mob>
     d54:	e8 ed       	ldi	r30, 0xD8	; 216
     d56:	f0 e0       	ldi	r31, 0x00	; 0
     d58:	80 81       	ld	r24, Z
     d5a:	82 60       	ori	r24, 0x02	; 2
     d5c:	80 83       	st	Z, r24
     d5e:	81 e0       	ldi	r24, 0x01	; 1
     d60:	08 95       	ret

00000d62 <main>:
     d62:	cf 93       	push	r28
     d64:	df 93       	push	r29
     d66:	cd b7       	in	r28, 0x3d	; 61
     d68:	de b7       	in	r29, 0x3e	; 62
     d6a:	cc 57       	subi	r28, 0x7C	; 124
     d6c:	d1 09       	sbc	r29, r1
     d6e:	0f b6       	in	r0, 0x3f	; 63
     d70:	f8 94       	cli
     d72:	de bf       	out	0x3e, r29	; 62
     d74:	0f be       	out	0x3f, r0	; 63
     d76:	cd bf       	out	0x3d, r28	; 61
     d78:	0f b6       	in	r0, 0x3f	; 63
     d7a:	f8 94       	cli
     d7c:	a8 95       	wdr
     d7e:	80 91 60 00 	lds	r24, 0x0060	; 0x800060 <__TEXT_REGION_LENGTH__+0x7e0060>
     d82:	88 61       	ori	r24, 0x18	; 24
     d84:	80 93 60 00 	sts	0x0060, r24	; 0x800060 <__TEXT_REGION_LENGTH__+0x7e0060>
     d88:	10 92 60 00 	sts	0x0060, r1	; 0x800060 <__TEXT_REGION_LENGTH__+0x7e0060>
     d8c:	0f be       	out	0x3f, r0	; 63
     d8e:	f8 94       	cli
     d90:	e5 eb       	ldi	r30, 0xB5	; 181
     d92:	f1 e0       	ldi	r31, 0x01	; 1
     d94:	21 ea       	ldi	r18, 0xA1	; 161
     d96:	31 e0       	ldi	r19, 0x01	; 1
     d98:	30 87       	std	Z+8, r19	; 0x08
     d9a:	27 83       	std	Z+7, r18	; 0x07
     d9c:	88 e0       	ldi	r24, 0x08	; 8
     d9e:	86 83       	std	Z+6, r24	; 0x06
     da0:	94 e0       	ldi	r25, 0x04	; 4
     da2:	91 83       	std	Z+1, r25	; 0x01
     da4:	e9 ea       	ldi	r30, 0xA9	; 169
     da6:	f1 e0       	ldi	r31, 0x01	; 1
     da8:	30 87       	std	Z+8, r19	; 0x08
     daa:	27 83       	std	Z+7, r18	; 0x07
     dac:	86 83       	std	Z+6, r24	; 0x06
     dae:	11 e0       	ldi	r17, 0x01	; 1
     db0:	11 83       	std	Z+1, r17	; 0x01
     db2:	13 86       	std	Z+11, r1	; 0x0b
     db4:	80 e7       	ldi	r24, 0x70	; 112
     db6:	90 e0       	ldi	r25, 0x00	; 0
     db8:	93 83       	std	Z+3, r25	; 0x03
     dba:	82 83       	std	Z+2, r24	; 0x02
     dbc:	10 92 9e 01 	sts	0x019E, r1	; 0x80019e <loop_count+0x1>
     dc0:	10 92 9d 01 	sts	0x019D, r1	; 0x80019d <loop_count>
     dc4:	40 e0       	ldi	r20, 0x00	; 0
     dc6:	50 e0       	ldi	r21, 0x00	; 0
     dc8:	ba 01       	movw	r22, r20
     dca:	83 e0       	ldi	r24, 0x03	; 3
     dcc:	9a d9       	rcall	.-3276   	; 0x102 <uart_init>
     dce:	10 93 d8 00 	sts	0x00D8, r17	; 0x8000d8 <__TEXT_REGION_LENGTH__+0x7e00d8>
     dd2:	80 e0       	ldi	r24, 0x00	; 0
     dd4:	bb df       	rcall	.-138    	; 0xd4c <can_init>
     dd6:	90 e0       	ldi	r25, 0x00	; 0
     dd8:	90 93 a0 01 	sts	0x01A0, r25	; 0x8001a0 <ret_code+0x1>
     ddc:	80 93 9f 01 	sts	0x019F, r24	; 0x80019f <ret_code>
     de0:	80 91 9f 01 	lds	r24, 0x019F	; 0x80019f <ret_code>
     de4:	90 91 a0 01 	lds	r25, 0x01A0	; 0x8001a0 <ret_code+0x1>
     de8:	89 2b       	or	r24, r25
     dea:	f1 f4       	brne	.+60     	; 0xe28 <main+0xc6>
     dec:	81 e0       	ldi	r24, 0x01	; 1
     dee:	ae df       	rcall	.-164    	; 0xd4c <can_init>
     df0:	90 e0       	ldi	r25, 0x00	; 0
     df2:	90 93 a0 01 	sts	0x01A0, r25	; 0x8001a0 <ret_code+0x1>
     df6:	80 93 9f 01 	sts	0x019F, r24	; 0x80019f <ret_code>
     dfa:	80 91 9d 01 	lds	r24, 0x019D	; 0x80019d <loop_count>
     dfe:	90 91 9e 01 	lds	r25, 0x019E	; 0x80019e <loop_count+0x1>
     e02:	01 96       	adiw	r24, 0x01	; 1
     e04:	90 93 9e 01 	sts	0x019E, r25	; 0x80019e <loop_count+0x1>
     e08:	80 93 9d 01 	sts	0x019D, r24	; 0x80019d <loop_count>
     e0c:	8a 35       	cpi	r24, 0x5A	; 90
     e0e:	91 05       	cpc	r25, r1
     e10:	3c f3       	brlt	.-50     	; 0xde0 <main+0x7e>
     e12:	98 e0       	ldi	r25, 0x08	; 8
     e14:	88 e1       	ldi	r24, 0x18	; 24
     e16:	0f b6       	in	r0, 0x3f	; 63
     e18:	f8 94       	cli
     e1a:	a8 95       	wdr
     e1c:	80 93 60 00 	sts	0x0060, r24	; 0x800060 <__TEXT_REGION_LENGTH__+0x7e0060>
     e20:	0f be       	out	0x3f, r0	; 63
     e22:	90 93 60 00 	sts	0x0060, r25	; 0x800060 <__TEXT_REGION_LENGTH__+0x7e0060>
     e26:	ff cf       	rjmp	.-2      	; 0xe26 <main+0xc4>
     e28:	eb ed       	ldi	r30, 0xDB	; 219
     e2a:	f0 e0       	ldi	r31, 0x00	; 0
     e2c:	80 81       	ld	r24, Z
     e2e:	80 68       	ori	r24, 0x80	; 128
     e30:	80 83       	st	Z, r24
     e32:	80 81       	ld	r24, Z
     e34:	80 62       	ori	r24, 0x20	; 32
     e36:	80 83       	st	Z, r24
     e38:	80 81       	ld	r24, Z
     e3a:	8f 7e       	andi	r24, 0xEF	; 239
     e3c:	80 83       	st	Z, r24
     e3e:	8f ef       	ldi	r24, 0xFF	; 255
     e40:	9f ef       	ldi	r25, 0xFF	; 255
     e42:	90 93 df 00 	sts	0x00DF, r25	; 0x8000df <__TEXT_REGION_LENGTH__+0x7e00df>
     e46:	80 93 de 00 	sts	0x00DE, r24	; 0x8000de <__TEXT_REGION_LENGTH__+0x7e00de>
     e4a:	78 94       	sei
     e4c:	6e 9a       	sbi	0x0d, 6	; 13
     e4e:	ce 01       	movw	r24, r28
     e50:	01 96       	adiw	r24, 0x01	; 1
     e52:	8f d1       	rcall	.+798    	; 0x1172 <_ZN4XBeeC1Ev>
     e54:	8c e7       	ldi	r24, 0x7C	; 124
     e56:	fe 01       	movw	r30, r28
     e58:	31 96       	adiw	r30, 0x01	; 1
     e5a:	aa e0       	ldi	r26, 0x0A	; 10
     e5c:	b1 e0       	ldi	r27, 0x01	; 1
     e5e:	01 90       	ld	r0, Z+
     e60:	0d 92       	st	X+, r0
     e62:	8a 95       	dec	r24
     e64:	e1 f7       	brne	.-8      	; 0xe5e <main+0xfc>
     e66:	e6 e8       	ldi	r30, 0x86	; 134
     e68:	f1 e0       	ldi	r31, 0x01	; 1
     e6a:	10 82       	st	Z, r1
     e6c:	11 82       	std	Z+1, r1	; 0x01
     e6e:	12 82       	std	Z+2, r1	; 0x02
     e70:	13 82       	std	Z+3, r1	; 0x03
     e72:	8f ef       	ldi	r24, 0xFF	; 255
     e74:	9f ef       	ldi	r25, 0xFF	; 255
     e76:	a0 e0       	ldi	r26, 0x00	; 0
     e78:	b0 e0       	ldi	r27, 0x00	; 0
     e7a:	84 83       	std	Z+4, r24	; 0x04
     e7c:	95 83       	std	Z+5, r25	; 0x05
     e7e:	a6 83       	std	Z+6, r26	; 0x06
     e80:	b7 83       	std	Z+7, r27	; 0x07
     e82:	ee e8       	ldi	r30, 0x8E	; 142
     e84:	f1 e0       	ldi	r31, 0x01	; 1
     e86:	10 82       	st	Z, r1
     e88:	11 82       	std	Z+1, r1	; 0x01
     e8a:	12 82       	std	Z+2, r1	; 0x02
     e8c:	13 82       	std	Z+3, r1	; 0x03
     e8e:	f0 93 09 01 	sts	0x0109, r31	; 0x800109 <__data_end+0x1>
     e92:	e0 93 08 01 	sts	0x0108, r30	; 0x800108 <__data_end>
     e96:	88 e0       	ldi	r24, 0x08	; 8
     e98:	80 93 bb 01 	sts	0x01BB, r24	; 0x8001bb <datum+0x6>
     e9c:	85 eb       	ldi	r24, 0xB5	; 181
     e9e:	91 e0       	ldi	r25, 0x01	; 1
     ea0:	ca d9       	rcall	.-3180   	; 0x236 <can_cmd>
     ea2:	81 11       	cpse	r24, r1
     ea4:	fb cf       	rjmp	.-10     	; 0xe9c <main+0x13a>
     ea6:	8f e3       	ldi	r24, 0x3F	; 63
     ea8:	9c e9       	ldi	r25, 0x9C	; 156
     eaa:	01 97       	sbiw	r24, 0x01	; 1
     eac:	f1 f7       	brne	.-4      	; 0xeaa <main+0x148>
     eae:	00 c0       	rjmp	.+0      	; 0xeb0 <main+0x14e>
     eb0:	00 00       	nop
     eb2:	f9 cf       	rjmp	.-14     	; 0xea6 <main+0x144>

00000eb4 <__vector_18>:
     eb4:	1f 92       	push	r1
     eb6:	0f 92       	push	r0
     eb8:	0f b6       	in	r0, 0x3f	; 63
     eba:	0f 92       	push	r0
     ebc:	11 24       	eor	r1, r1
     ebe:	0b b6       	in	r0, 0x3b	; 59
     ec0:	0f 92       	push	r0
     ec2:	2f 93       	push	r18
     ec4:	3f 93       	push	r19
     ec6:	4f 93       	push	r20
     ec8:	5f 93       	push	r21
     eca:	6f 93       	push	r22
     ecc:	7f 93       	push	r23
     ece:	8f 93       	push	r24
     ed0:	9f 93       	push	r25
     ed2:	af 93       	push	r26
     ed4:	bf 93       	push	r27
     ed6:	ef 93       	push	r30
     ed8:	ff 93       	push	r31
     eda:	cf 93       	push	r28
     edc:	df 93       	push	r29
     ede:	cd b7       	in	r28, 0x3d	; 61
     ee0:	de b7       	in	r29, 0x3e	; 62
     ee2:	63 97       	sbiw	r28, 0x13	; 19
     ee4:	de bf       	out	0x3e, r29	; 62
     ee6:	cd bf       	out	0x3d, r28	; 61
     ee8:	f8 94       	cli
     eea:	9e b1       	in	r25, 0x0e	; 14
     eec:	80 e4       	ldi	r24, 0x40	; 64
     eee:	89 27       	eor	r24, r25
     ef0:	8e b9       	out	0x0e, r24	; 14
     ef2:	80 91 ed 00 	lds	r24, 0x00ED	; 0x8000ed <__TEXT_REGION_LENGTH__+0x7e00ed>
     ef6:	80 93 9b 01 	sts	0x019B, r24	; 0x80019b <save_canpage>
     efa:	80 91 e0 00 	lds	r24, 0x00E0	; 0x8000e0 <__TEXT_REGION_LENGTH__+0x7e00e0>
     efe:	20 91 e1 00 	lds	r18, 0x00E1	; 0x8000e1 <__TEXT_REGION_LENGTH__+0x7e00e1>
     f02:	90 e0       	ldi	r25, 0x00	; 0
     f04:	92 2b       	or	r25, r18
     f06:	00 97       	sbiw	r24, 0x00	; 0
     f08:	09 f4       	brne	.+2      	; 0xf0c <__vector_18+0x58>
     f0a:	a8 c0       	rjmp	.+336    	; 0x105c <__vector_18+0x1a8>
     f0c:	80 fd       	sbrc	r24, 0
     f0e:	aa c0       	rjmp	.+340    	; 0x1064 <__vector_18+0x1b0>
     f10:	20 e0       	ldi	r18, 0x00	; 0
     f12:	96 95       	lsr	r25
     f14:	87 95       	ror	r24
     f16:	2f 5f       	subi	r18, 0xFF	; 255
     f18:	80 ff       	sbrs	r24, 0
     f1a:	fb cf       	rjmp	.-10     	; 0xf12 <__vector_18+0x5e>
     f1c:	2f 30       	cpi	r18, 0x0F	; 15
     f1e:	08 f0       	brcs	.+2      	; 0xf22 <__vector_18+0x6e>
     f20:	9d c0       	rjmp	.+314    	; 0x105c <__vector_18+0x1a8>
     f22:	20 93 9a 01 	sts	0x019A, r18	; 0x80019a <mob>
     f26:	2f 3f       	cpi	r18, 0xFF	; 255
     f28:	11 f4       	brne	.+4      	; 0xf2e <__vector_18+0x7a>
     f2a:	78 94       	sei
     f2c:	9f c0       	rjmp	.+318    	; 0x106c <__vector_18+0x1b8>
     f2e:	22 95       	swap	r18
     f30:	20 7f       	andi	r18, 0xF0	; 240
     f32:	20 93 ed 00 	sts	0x00ED, r18	; 0x8000ed <__TEXT_REGION_LENGTH__+0x7e00ed>
     f36:	80 91 ef 00 	lds	r24, 0x00EF	; 0x8000ef <__TEXT_REGION_LENGTH__+0x7e00ef>
     f3a:	84 ff       	sbrs	r24, 4
     f3c:	37 c0       	rjmp	.+110    	; 0xfac <__vector_18+0xf8>
     f3e:	43 ef       	ldi	r20, 0xF3	; 243
     f40:	50 e0       	ldi	r21, 0x00	; 0
     f42:	da 01       	movw	r26, r20
     f44:	8c 91       	ld	r24, X
     f46:	ee e8       	ldi	r30, 0x8E	; 142
     f48:	f1 e0       	ldi	r31, 0x01	; 1
     f4a:	90 e0       	ldi	r25, 0x00	; 0
     f4c:	95 95       	asr	r25
     f4e:	87 95       	ror	r24
     f50:	95 95       	asr	r25
     f52:	87 95       	ror	r24
     f54:	95 95       	asr	r25
     f56:	87 95       	ror	r24
     f58:	83 83       	std	Z+3, r24	; 0x03
     f5a:	22 ef       	ldi	r18, 0xF2	; 242
     f5c:	30 e0       	ldi	r19, 0x00	; 0
     f5e:	d9 01       	movw	r26, r18
     f60:	8c 91       	ld	r24, X
     f62:	da 01       	movw	r26, r20
     f64:	9c 91       	ld	r25, X
     f66:	86 95       	lsr	r24
     f68:	86 95       	lsr	r24
     f6a:	86 95       	lsr	r24
     f6c:	b0 e2       	ldi	r27, 0x20	; 32
     f6e:	9b 9f       	mul	r25, r27
     f70:	80 0d       	add	r24, r0
     f72:	11 24       	eor	r1, r1
     f74:	82 83       	std	Z+2, r24	; 0x02
     f76:	41 ef       	ldi	r20, 0xF1	; 241
     f78:	50 e0       	ldi	r21, 0x00	; 0
     f7a:	da 01       	movw	r26, r20
     f7c:	8c 91       	ld	r24, X
     f7e:	d9 01       	movw	r26, r18
     f80:	9c 91       	ld	r25, X
     f82:	86 95       	lsr	r24
     f84:	86 95       	lsr	r24
     f86:	86 95       	lsr	r24
     f88:	b0 e2       	ldi	r27, 0x20	; 32
     f8a:	9b 9f       	mul	r25, r27
     f8c:	80 0d       	add	r24, r0
     f8e:	11 24       	eor	r1, r1
     f90:	81 83       	std	Z+1, r24	; 0x01
     f92:	80 91 f0 00 	lds	r24, 0x00F0	; 0x8000f0 <__TEXT_REGION_LENGTH__+0x7e00f0>
     f96:	da 01       	movw	r26, r20
     f98:	9c 91       	ld	r25, X
     f9a:	86 95       	lsr	r24
     f9c:	86 95       	lsr	r24
     f9e:	86 95       	lsr	r24
     fa0:	b0 e2       	ldi	r27, 0x20	; 32
     fa2:	9b 9f       	mul	r25, r27
     fa4:	80 0d       	add	r24, r0
     fa6:	11 24       	eor	r1, r1
     fa8:	80 83       	st	Z, r24
     faa:	1c c0       	rjmp	.+56     	; 0xfe4 <__vector_18+0x130>
     fac:	a3 ef       	ldi	r26, 0xF3	; 243
     fae:	b0 e0       	ldi	r27, 0x00	; 0
     fb0:	8c 91       	ld	r24, X
     fb2:	ee e8       	ldi	r30, 0x8E	; 142
     fb4:	f1 e0       	ldi	r31, 0x01	; 1
     fb6:	90 e0       	ldi	r25, 0x00	; 0
     fb8:	95 95       	asr	r25
     fba:	87 95       	ror	r24
     fbc:	95 95       	asr	r25
     fbe:	87 95       	ror	r24
     fc0:	95 95       	asr	r25
     fc2:	87 95       	ror	r24
     fc4:	95 95       	asr	r25
     fc6:	87 95       	ror	r24
     fc8:	95 95       	asr	r25
     fca:	87 95       	ror	r24
     fcc:	81 83       	std	Z+1, r24	; 0x01
     fce:	90 91 f2 00 	lds	r25, 0x00F2	; 0x8000f2 <__TEXT_REGION_LENGTH__+0x7e00f2>
     fd2:	8c 91       	ld	r24, X
     fd4:	92 95       	swap	r25
     fd6:	96 95       	lsr	r25
     fd8:	97 70       	andi	r25, 0x07	; 7
     fda:	88 0f       	add	r24, r24
     fdc:	88 0f       	add	r24, r24
     fde:	88 0f       	add	r24, r24
     fe0:	89 0f       	add	r24, r25
     fe2:	80 83       	st	Z, r24
     fe4:	82 e9       	ldi	r24, 0x92	; 146
     fe6:	91 e0       	ldi	r25, 0x01	; 1
     fe8:	86 de       	rcall	.-756    	; 0xcf6 <can_get_data>
     fea:	40 91 08 01 	lds	r20, 0x0108	; 0x800108 <__data_end>
     fee:	50 91 09 01 	lds	r21, 0x0109	; 0x800109 <__data_end+0x1>
     ff2:	2c e0       	ldi	r18, 0x0C	; 12
     ff4:	66 e8       	ldi	r22, 0x86	; 134
     ff6:	71 e0       	ldi	r23, 0x01	; 1
     ff8:	ce 01       	movw	r24, r28
     ffa:	01 96       	adiw	r24, 0x01	; 1
     ffc:	c6 d0       	rcall	.+396    	; 0x118a <_ZN11ZBTxRequestC1ERK13XBeeAddress64Phh>
     ffe:	be 01       	movw	r22, r28
    1000:	6f 5f       	subi	r22, 0xFF	; 255
    1002:	7f 4f       	sbci	r23, 0xFF	; 255
    1004:	8a e0       	ldi	r24, 0x0A	; 10
    1006:	91 e0       	ldi	r25, 0x01	; 1
    1008:	00 d1       	rcall	.+512    	; 0x120a <_ZN4XBee4sendER11XBeeRequest>
    100a:	ef e3       	ldi	r30, 0x3F	; 63
    100c:	fc e9       	ldi	r31, 0x9C	; 156
    100e:	31 97       	sbiw	r30, 0x01	; 1
    1010:	f1 f7       	brne	.-4      	; 0x100e <__vector_18+0x15a>
    1012:	00 c0       	rjmp	.+0      	; 0x1014 <__vector_18+0x160>
    1014:	00 00       	nop
    1016:	ee ee       	ldi	r30, 0xEE	; 238
    1018:	f0 e0       	ldi	r31, 0x00	; 0
    101a:	80 81       	ld	r24, Z
    101c:	80 93 9c 01 	sts	0x019C, r24	; 0x80019c <save_reg>
    1020:	10 82       	st	Z, r1
    1022:	ef ee       	ldi	r30, 0xEF	; 239
    1024:	f0 e0       	ldi	r31, 0x00	; 0
    1026:	80 81       	ld	r24, Z
    1028:	80 61       	ori	r24, 0x10	; 16
    102a:	80 83       	st	Z, r24
    102c:	80 81       	ld	r24, Z
    102e:	88 60       	ori	r24, 0x08	; 8
    1030:	80 83       	st	Z, r24
    1032:	a4 ef       	ldi	r26, 0xF4	; 244
    1034:	b0 e0       	ldi	r27, 0x00	; 0
    1036:	8c 91       	ld	r24, X
    1038:	8b 7f       	andi	r24, 0xFB	; 251
    103a:	8c 93       	st	X, r24
    103c:	8c 91       	ld	r24, X
    103e:	8e 7f       	andi	r24, 0xFE	; 254
    1040:	8c 93       	st	X, r24
    1042:	80 81       	ld	r24, Z
    1044:	8f 73       	andi	r24, 0x3F	; 63
    1046:	80 83       	st	Z, r24
    1048:	80 81       	ld	r24, Z
    104a:	80 68       	ori	r24, 0x80	; 128
    104c:	80 83       	st	Z, r24
    104e:	80 91 9b 01 	lds	r24, 0x019B	; 0x80019b <save_canpage>
    1052:	80 93 ed 00 	sts	0x00ED, r24	; 0x8000ed <__TEXT_REGION_LENGTH__+0x7e00ed>
    1056:	1e b8       	out	0x0e, r1	; 14
    1058:	78 94       	sei
    105a:	08 c0       	rjmp	.+16     	; 0x106c <__vector_18+0x1b8>
    105c:	8f ef       	ldi	r24, 0xFF	; 255
    105e:	80 93 9a 01 	sts	0x019A, r24	; 0x80019a <mob>
    1062:	63 cf       	rjmp	.-314    	; 0xf2a <__vector_18+0x76>
    1064:	10 92 9a 01 	sts	0x019A, r1	; 0x80019a <mob>
    1068:	20 e0       	ldi	r18, 0x00	; 0
    106a:	61 cf       	rjmp	.-318    	; 0xf2e <__vector_18+0x7a>
    106c:	63 96       	adiw	r28, 0x13	; 19
    106e:	0f b6       	in	r0, 0x3f	; 63
    1070:	f8 94       	cli
    1072:	de bf       	out	0x3e, r29	; 62
    1074:	0f be       	out	0x3f, r0	; 63
    1076:	cd bf       	out	0x3d, r28	; 61
    1078:	df 91       	pop	r29
    107a:	cf 91       	pop	r28
    107c:	ff 91       	pop	r31
    107e:	ef 91       	pop	r30
    1080:	bf 91       	pop	r27
    1082:	af 91       	pop	r26
    1084:	9f 91       	pop	r25
    1086:	8f 91       	pop	r24
    1088:	7f 91       	pop	r23
    108a:	6f 91       	pop	r22
    108c:	5f 91       	pop	r21
    108e:	4f 91       	pop	r20
    1090:	3f 91       	pop	r19
    1092:	2f 91       	pop	r18
    1094:	0f 90       	pop	r0
    1096:	0b be       	out	0x3b, r0	; 59
    1098:	0f 90       	pop	r0
    109a:	0f be       	out	0x3f, r0	; 63
    109c:	0f 90       	pop	r0
    109e:	1f 90       	pop	r1
    10a0:	18 95       	reti

000010a2 <__vector_19>:
    10a2:	1f 92       	push	r1
    10a4:	0f 92       	push	r0
    10a6:	0f b6       	in	r0, 0x3f	; 63
    10a8:	0f 92       	push	r0
    10aa:	11 24       	eor	r1, r1
    10ac:	0f 90       	pop	r0
    10ae:	0f be       	out	0x3f, r0	; 63
    10b0:	0f 90       	pop	r0
    10b2:	1f 90       	pop	r1
    10b4:	18 95       	reti

000010b6 <_GLOBAL__sub_I_txt_logo_atmel>:
    10b6:	e6 e8       	ldi	r30, 0x86	; 134
    10b8:	f1 e0       	ldi	r31, 0x01	; 1
    10ba:	10 82       	st	Z, r1
    10bc:	11 82       	std	Z+1, r1	; 0x01
    10be:	12 82       	std	Z+2, r1	; 0x02
    10c0:	13 82       	std	Z+3, r1	; 0x03
    10c2:	14 82       	std	Z+4, r1	; 0x04
    10c4:	15 82       	std	Z+5, r1	; 0x05
    10c6:	16 82       	std	Z+6, r1	; 0x06
    10c8:	17 82       	std	Z+7, r1	; 0x07
    10ca:	8a e0       	ldi	r24, 0x0A	; 10
    10cc:	91 e0       	ldi	r25, 0x01	; 1
    10ce:	51 c0       	rjmp	.+162    	; 0x1172 <_ZN4XBeeC1Ev>
    10d0:	08 95       	ret

000010d2 <_ZN11ZBTxRequest18getFrameDataLengthEv>:
    10d2:	fc 01       	movw	r30, r24
    10d4:	86 81       	ldd	r24, Z+6	; 0x06
    10d6:	84 5f       	subi	r24, 0xF4	; 244
    10d8:	08 95       	ret

000010da <_ZN11ZBTxRequest12getFrameDataEh>:
    10da:	61 11       	cpse	r22, r1
    10dc:	04 c0       	rjmp	.+8      	; 0x10e6 <_ZN11ZBTxRequest12getFrameDataEh+0xc>
    10de:	dc 01       	movw	r26, r24
    10e0:	1a 96       	adiw	r26, 0x0a	; 10
    10e2:	8c 91       	ld	r24, X
    10e4:	08 95       	ret
    10e6:	61 30       	cpi	r22, 0x01	; 1
    10e8:	19 f4       	brne	.+6      	; 0x10f0 <_ZN11ZBTxRequest12getFrameDataEh+0x16>
    10ea:	fc 01       	movw	r30, r24
    10ec:	81 85       	ldd	r24, Z+9	; 0x09
    10ee:	08 95       	ret
    10f0:	62 30       	cpi	r22, 0x02	; 2
    10f2:	21 f4       	brne	.+8      	; 0x10fc <_ZN11ZBTxRequest12getFrameDataEh+0x22>
    10f4:	dc 01       	movw	r26, r24
    10f6:	18 96       	adiw	r26, 0x08	; 8
    10f8:	8c 91       	ld	r24, X
    10fa:	08 95       	ret
    10fc:	63 30       	cpi	r22, 0x03	; 3
    10fe:	19 f4       	brne	.+6      	; 0x1106 <__stack+0x7>
    1100:	fc 01       	movw	r30, r24
    1102:	87 81       	ldd	r24, Z+7	; 0x07
    1104:	08 95       	ret
    1106:	64 30       	cpi	r22, 0x04	; 4
    1108:	21 f4       	brne	.+8      	; 0x1112 <__stack+0x13>
    110a:	dc 01       	movw	r26, r24
    110c:	1e 96       	adiw	r26, 0x0e	; 14
    110e:	8c 91       	ld	r24, X
    1110:	08 95       	ret
    1112:	65 30       	cpi	r22, 0x05	; 5
    1114:	19 f4       	brne	.+6      	; 0x111c <__stack+0x1d>
    1116:	fc 01       	movw	r30, r24
    1118:	85 85       	ldd	r24, Z+13	; 0x0d
    111a:	08 95       	ret
    111c:	66 30       	cpi	r22, 0x06	; 6
    111e:	21 f4       	brne	.+8      	; 0x1128 <__stack+0x29>
    1120:	dc 01       	movw	r26, r24
    1122:	1c 96       	adiw	r26, 0x0c	; 12
    1124:	8c 91       	ld	r24, X
    1126:	08 95       	ret
    1128:	67 30       	cpi	r22, 0x07	; 7
    112a:	19 f4       	brne	.+6      	; 0x1132 <__stack+0x33>
    112c:	fc 01       	movw	r30, r24
    112e:	83 85       	ldd	r24, Z+11	; 0x0b
    1130:	08 95       	ret
    1132:	68 30       	cpi	r22, 0x08	; 8
    1134:	21 f4       	brne	.+8      	; 0x113e <__stack+0x3f>
    1136:	dc 01       	movw	r26, r24
    1138:	50 96       	adiw	r26, 0x10	; 16
    113a:	8c 91       	ld	r24, X
    113c:	08 95       	ret
    113e:	69 30       	cpi	r22, 0x09	; 9
    1140:	19 f4       	brne	.+6      	; 0x1148 <__stack+0x49>
    1142:	fc 01       	movw	r30, r24
    1144:	87 85       	ldd	r24, Z+15	; 0x0f
    1146:	08 95       	ret
    1148:	6a 30       	cpi	r22, 0x0A	; 10
    114a:	21 f4       	brne	.+8      	; 0x1154 <__stack+0x55>
    114c:	dc 01       	movw	r26, r24
    114e:	51 96       	adiw	r26, 0x11	; 17
    1150:	8c 91       	ld	r24, X
    1152:	08 95       	ret
    1154:	6b 30       	cpi	r22, 0x0B	; 11
    1156:	19 f4       	brne	.+6      	; 0x115e <__stack+0x5f>
    1158:	fc 01       	movw	r30, r24
    115a:	82 89       	ldd	r24, Z+18	; 0x12
    115c:	08 95       	ret
    115e:	dc 01       	movw	r26, r24
    1160:	14 96       	adiw	r26, 0x04	; 4
    1162:	ed 91       	ld	r30, X+
    1164:	fc 91       	ld	r31, X
    1166:	15 97       	sbiw	r26, 0x05	; 5
    1168:	e6 0f       	add	r30, r22
    116a:	f1 1d       	adc	r31, r1
    116c:	3c 97       	sbiw	r30, 0x0c	; 12
    116e:	80 81       	ld	r24, Z
    1170:	08 95       	ret

00001172 <_ZN4XBeeC1Ev>:
    1172:	fc 01       	movw	r30, r24
    1174:	12 86       	std	Z+10, r1	; 0x0a
    1176:	11 86       	std	Z+9, r1	; 0x09
    1178:	14 86       	std	Z+12, r1	; 0x0c
    117a:	15 86       	std	Z+13, r1	; 0x0d
    117c:	17 82       	std	Z+7, r1	; 0x07
    117e:	10 86       	std	Z+8, r1	; 0x08
    1180:	15 82       	std	Z+5, r1	; 0x05
    1182:	0e 96       	adiw	r24, 0x0e	; 14
    1184:	91 83       	std	Z+1, r25	; 0x01
    1186:	80 83       	st	Z, r24
    1188:	08 95       	ret

0000118a <_ZN11ZBTxRequestC1ERK13XBeeAddress64Phh>:
    118a:	cf 93       	push	r28
    118c:	df 93       	push	r29
    118e:	ec 01       	movw	r28, r24
    1190:	80 e1       	ldi	r24, 0x10	; 16
    1192:	8a 83       	std	Y+2, r24	; 0x02
    1194:	81 e0       	ldi	r24, 0x01	; 1
    1196:	8b 83       	std	Y+3, r24	; 0x03
    1198:	5d 83       	std	Y+5, r21	; 0x05
    119a:	4c 83       	std	Y+4, r20	; 0x04
    119c:	2e 83       	std	Y+6, r18	; 0x06
    119e:	84 e0       	ldi	r24, 0x04	; 4
    11a0:	91 e0       	ldi	r25, 0x01	; 1
    11a2:	99 83       	std	Y+1, r25	; 0x01
    11a4:	88 83       	st	Y, r24
    11a6:	1f 82       	std	Y+7, r1	; 0x07
    11a8:	18 86       	std	Y+8, r1	; 0x08
    11aa:	19 86       	std	Y+9, r1	; 0x09
    11ac:	1a 86       	std	Y+10, r1	; 0x0a
    11ae:	1b 86       	std	Y+11, r1	; 0x0b
    11b0:	1c 86       	std	Y+12, r1	; 0x0c
    11b2:	1d 86       	std	Y+13, r1	; 0x0d
    11b4:	1e 86       	std	Y+14, r1	; 0x0e
    11b6:	88 e0       	ldi	r24, 0x08	; 8
    11b8:	fb 01       	movw	r30, r22
    11ba:	de 01       	movw	r26, r28
    11bc:	17 96       	adiw	r26, 0x07	; 7
    11be:	01 90       	ld	r0, Z+
    11c0:	0d 92       	st	X+, r0
    11c2:	8a 95       	dec	r24
    11c4:	e1 f7       	brne	.-8      	; 0x11be <_ZN11ZBTxRequestC1ERK13XBeeAddress64Phh+0x34>
    11c6:	8e ef       	ldi	r24, 0xFE	; 254
    11c8:	9f ef       	ldi	r25, 0xFF	; 255
    11ca:	98 8b       	std	Y+16, r25	; 0x10
    11cc:	8f 87       	std	Y+15, r24	; 0x0f
    11ce:	19 8a       	std	Y+17, r1	; 0x11
    11d0:	1a 8a       	std	Y+18, r1	; 0x12
    11d2:	df 91       	pop	r29
    11d4:	cf 91       	pop	r28
    11d6:	08 95       	ret

000011d8 <_ZN4XBee8sendByteEhb>:
    11d8:	cf 93       	push	r28
    11da:	c6 2f       	mov	r28, r22
    11dc:	44 23       	and	r20, r20
    11de:	81 f0       	breq	.+32     	; 0x1200 <_ZN4XBee8sendByteEhb+0x28>
    11e0:	83 e8       	ldi	r24, 0x83	; 131
    11e2:	86 0f       	add	r24, r22
    11e4:	82 30       	cpi	r24, 0x02	; 2
    11e6:	20 f0       	brcs	.+8      	; 0x11f0 <_ZN4XBee8sendByteEhb+0x18>
    11e8:	86 2f       	mov	r24, r22
    11ea:	8d 7f       	andi	r24, 0xFD	; 253
    11ec:	81 31       	cpi	r24, 0x11	; 17
    11ee:	41 f4       	brne	.+16     	; 0x1200 <_ZN4XBee8sendByteEhb+0x28>
    11f0:	8d e7       	ldi	r24, 0x7D	; 125
    11f2:	0e 94 bd 00 	call	0x17a	; 0x17a <uart_putchar>
    11f6:	80 e2       	ldi	r24, 0x20	; 32
    11f8:	8c 27       	eor	r24, r28
    11fa:	0e 94 bd 00 	call	0x17a	; 0x17a <uart_putchar>
    11fe:	03 c0       	rjmp	.+6      	; 0x1206 <_ZN4XBee8sendByteEhb+0x2e>
    1200:	8c 2f       	mov	r24, r28
    1202:	0e 94 bd 00 	call	0x17a	; 0x17a <uart_putchar>
    1206:	cf 91       	pop	r28
    1208:	08 95       	ret

0000120a <_ZN4XBee4sendER11XBeeRequest>:
    120a:	cf 92       	push	r12
    120c:	df 92       	push	r13
    120e:	ff 92       	push	r15
    1210:	0f 93       	push	r16
    1212:	1f 93       	push	r17
    1214:	cf 93       	push	r28
    1216:	df 93       	push	r29
    1218:	6c 01       	movw	r12, r24
    121a:	eb 01       	movw	r28, r22
    121c:	40 e0       	ldi	r20, 0x00	; 0
    121e:	6e e7       	ldi	r22, 0x7E	; 126
    1220:	db df       	rcall	.-74     	; 0x11d8 <_ZN4XBee8sendByteEhb>
    1222:	e8 81       	ld	r30, Y
    1224:	f9 81       	ldd	r31, Y+1	; 0x01
    1226:	02 80       	ldd	r0, Z+2	; 0x02
    1228:	f3 81       	ldd	r31, Z+3	; 0x03
    122a:	e0 2d       	mov	r30, r0
    122c:	ce 01       	movw	r24, r28
    122e:	09 95       	icall
    1230:	18 2f       	mov	r17, r24
    1232:	e8 81       	ld	r30, Y
    1234:	f9 81       	ldd	r31, Y+1	; 0x01
    1236:	02 80       	ldd	r0, Z+2	; 0x02
    1238:	f3 81       	ldd	r31, Z+3	; 0x03
    123a:	e0 2d       	mov	r30, r0
    123c:	ce 01       	movw	r24, r28
    123e:	09 95       	icall
    1240:	08 2f       	mov	r16, r24
    1242:	81 2f       	mov	r24, r17
    1244:	90 e0       	ldi	r25, 0x00	; 0
    1246:	02 96       	adiw	r24, 0x02	; 2
    1248:	41 e0       	ldi	r20, 0x01	; 1
    124a:	69 2f       	mov	r22, r25
    124c:	c6 01       	movw	r24, r12
    124e:	c4 df       	rcall	.-120    	; 0x11d8 <_ZN4XBee8sendByteEhb>
    1250:	62 e0       	ldi	r22, 0x02	; 2
    1252:	60 0f       	add	r22, r16
    1254:	41 e0       	ldi	r20, 0x01	; 1
    1256:	c6 01       	movw	r24, r12
    1258:	bf df       	rcall	.-130    	; 0x11d8 <_ZN4XBee8sendByteEhb>
    125a:	41 e0       	ldi	r20, 0x01	; 1
    125c:	6a 81       	ldd	r22, Y+2	; 0x02
    125e:	c6 01       	movw	r24, r12
    1260:	bb df       	rcall	.-138    	; 0x11d8 <_ZN4XBee8sendByteEhb>
    1262:	41 e0       	ldi	r20, 0x01	; 1
    1264:	6b 81       	ldd	r22, Y+3	; 0x03
    1266:	c6 01       	movw	r24, r12
    1268:	b7 df       	rcall	.-146    	; 0x11d8 <_ZN4XBee8sendByteEhb>
    126a:	fb 80       	ldd	r15, Y+3	; 0x03
    126c:	8a 81       	ldd	r24, Y+2	; 0x02
    126e:	f8 0e       	add	r15, r24
    1270:	00 e0       	ldi	r16, 0x00	; 0
    1272:	10 e0       	ldi	r17, 0x00	; 0
    1274:	e8 81       	ld	r30, Y
    1276:	f9 81       	ldd	r31, Y+1	; 0x01
    1278:	02 80       	ldd	r0, Z+2	; 0x02
    127a:	f3 81       	ldd	r31, Z+3	; 0x03
    127c:	e0 2d       	mov	r30, r0
    127e:	ce 01       	movw	r24, r28
    1280:	09 95       	icall
    1282:	90 e0       	ldi	r25, 0x00	; 0
    1284:	08 17       	cp	r16, r24
    1286:	19 07       	cpc	r17, r25
    1288:	c4 f4       	brge	.+48     	; 0x12ba <_ZN4XBee4sendER11XBeeRequest+0xb0>
    128a:	e8 81       	ld	r30, Y
    128c:	f9 81       	ldd	r31, Y+1	; 0x01
    128e:	01 90       	ld	r0, Z+
    1290:	f0 81       	ld	r31, Z
    1292:	e0 2d       	mov	r30, r0
    1294:	60 2f       	mov	r22, r16
    1296:	ce 01       	movw	r24, r28
    1298:	09 95       	icall
    129a:	41 e0       	ldi	r20, 0x01	; 1
    129c:	68 2f       	mov	r22, r24
    129e:	c6 01       	movw	r24, r12
    12a0:	9b df       	rcall	.-202    	; 0x11d8 <_ZN4XBee8sendByteEhb>
    12a2:	e8 81       	ld	r30, Y
    12a4:	f9 81       	ldd	r31, Y+1	; 0x01
    12a6:	01 90       	ld	r0, Z+
    12a8:	f0 81       	ld	r31, Z
    12aa:	e0 2d       	mov	r30, r0
    12ac:	60 2f       	mov	r22, r16
    12ae:	ce 01       	movw	r24, r28
    12b0:	09 95       	icall
    12b2:	f8 0e       	add	r15, r24
    12b4:	0f 5f       	subi	r16, 0xFF	; 255
    12b6:	1f 4f       	sbci	r17, 0xFF	; 255
    12b8:	dd cf       	rjmp	.-70     	; 0x1274 <_ZN4XBee4sendER11XBeeRequest+0x6a>
    12ba:	6f 2d       	mov	r22, r15
    12bc:	60 95       	com	r22
    12be:	41 e0       	ldi	r20, 0x01	; 1
    12c0:	c6 01       	movw	r24, r12
    12c2:	8a df       	rcall	.-236    	; 0x11d8 <_ZN4XBee8sendByteEhb>
    12c4:	df 91       	pop	r29
    12c6:	cf 91       	pop	r28
    12c8:	1f 91       	pop	r17
    12ca:	0f 91       	pop	r16
    12cc:	ff 90       	pop	r15
    12ce:	df 90       	pop	r13
    12d0:	cf 90       	pop	r12
    12d2:	08 95       	ret

000012d4 <_GLOBAL__sub_I__ZN12XBeeResponseC2Ev>:
    12d4:	e5 ec       	ldi	r30, 0xC5	; 197
    12d6:	f1 e0       	ldi	r31, 0x01	; 1
    12d8:	10 82       	st	Z, r1
    12da:	11 82       	std	Z+1, r1	; 0x01
    12dc:	12 82       	std	Z+2, r1	; 0x02
    12de:	13 82       	std	Z+3, r1	; 0x03
    12e0:	8f ef       	ldi	r24, 0xFF	; 255
    12e2:	9f ef       	ldi	r25, 0xFF	; 255
    12e4:	a0 e0       	ldi	r26, 0x00	; 0
    12e6:	b0 e0       	ldi	r27, 0x00	; 0
    12e8:	84 83       	std	Z+4, r24	; 0x04
    12ea:	95 83       	std	Z+5, r25	; 0x05
    12ec:	a6 83       	std	Z+6, r26	; 0x06
    12ee:	b7 83       	std	Z+7, r27	; 0x07
    12f0:	08 95       	ret

000012f2 <__tablejump2__>:
    12f2:	ee 0f       	add	r30, r30
    12f4:	ff 1f       	adc	r31, r31
    12f6:	00 24       	eor	r0, r0
    12f8:	00 1c       	adc	r0, r0
    12fa:	0b be       	out	0x3b, r0	; 59
    12fc:	07 90       	elpm	r0, Z+
    12fe:	f6 91       	elpm	r31, Z
    1300:	e0 2d       	mov	r30, r0
    1302:	09 94       	ijmp

00001304 <_exit>:
    1304:	f8 94       	cli

00001306 <__stop_program>:
    1306:	ff cf       	rjmp	.-2      	; 0x1306 <__stop_program>
